

Microchip MPLAB XC8 Assembler V3.10 build 20250813170317 
                                                                                               Thu Dec 25 09:22:32 2025

Microchip MPLAB XC8 C Compiler v3.10 (Free license) build 20250813170317 Og1 
     1                           	processor	16F877A
     2                           	pagewidth 120
     3                           	opt	flic
     4                           	psect	idataCOMMON,global,class=CODE,space=0,delta=2,noexec
     5                           	psect	idataBANK0,global,class=CODE,space=0,delta=2,noexec
     6                           	psect	idataBANK1,global,class=CODE,space=0,delta=2,noexec
     7                           	psect	idataBANK3,global,class=CODE,space=0,delta=2,noexec
     8                           	psect	strings,global,class=STRING,space=0,delta=2,noexec
     9                           	psect	stringtext,global,reloc=256,class=STRCODE,space=0,delta=2,noexec
    10                           	psect	cinit,global,class=CODE,space=0,merge=1,delta=2
    11                           	psect	bssCOMMON,global,class=COMMON,space=1,delta=1,noexec
    12                           	psect	dataCOMMON,global,class=COMMON,space=1,delta=1,noexec
    13                           	psect	bssBANK0,global,class=BANK0,space=1,delta=1,noexec
    14                           	psect	dataBANK0,global,class=BANK0,space=1,delta=1,noexec
    15                           	psect	bssBANK1,global,class=BANK1,space=1,delta=1,noexec
    16                           	psect	dataBANK1,global,class=BANK1,space=1,delta=1,noexec
    17                           	psect	dataBANK3,global,class=BANK3,space=1,delta=1,noexec
    18                           	psect	inittext,global,class=CODE,space=0,delta=2
    19                           	psect	clrtext,global,class=CODE,space=0,delta=2
    20                           	psect	cstackCOMMON,global,class=COMMON,space=1,delta=1,noexec
    21                           	psect	cstackBANK0,global,class=BANK0,space=1,delta=1,noexec
    22                           	psect	maintext,global,class=CODE,space=0,split=1,delta=2
    23                           	psect	text1,local,class=CODE,space=0,merge=1,delta=2
    24                           	psect	text2,local,class=CODE,space=0,merge=1,delta=2,group=2
    25                           	psect	text3,local,class=CODE,space=0,merge=1,delta=2
    26                           	psect	text4,local,class=CODE,space=0,merge=1,delta=2
    27                           	psect	text5,local,class=CODE,space=0,merge=1,delta=2,group=1
    28                           	psect	text6,local,class=CODE,space=0,merge=1,delta=2
    29                           	psect	text7,local,class=CODE,space=0,merge=1,delta=2
    30                           	psect	text8,local,class=CODE,space=0,merge=1,delta=2
    31                           	psect	text9,local,class=CODE,space=0,merge=1,delta=2,group=2
    32                           	psect	text10,local,class=CODE,space=0,merge=1,delta=2
    33                           	psect	text11,local,class=CODE,space=0,merge=1,delta=2,group=2
    34                           	psect	text12,local,class=CODE,space=0,merge=1,delta=2
    35                           	psect	text13,local,class=CODE,space=0,merge=1,delta=2
    36                           	psect	text14,local,class=CODE,space=0,merge=1,delta=2
    37                           	psect	text15,local,class=CODE,space=0,merge=1,delta=2
    38                           	psect	text16,local,class=CODE,space=0,merge=1,delta=2,group=1
    39                           	psect	text17,local,class=CODE,space=0,merge=1,delta=2
    40                           	psect	text18,local,class=CODE,space=0,merge=1,delta=2
    41                           	psect	text19,local,class=CODE,space=0,merge=1,delta=2
    42                           	psect	text20,local,class=CODE,space=0,merge=1,delta=2,group=1
    43                           	psect	text21,local,class=CODE,space=0,merge=1,delta=2,group=1
    44                           	psect	text22,local,class=CODE,space=0,merge=1,delta=2,group=1
    45                           	psect	text23,local,class=CODE,space=0,merge=1,delta=2
    46                           	psect	text24,local,class=CODE,space=0,merge=1,delta=2
    47                           	psect	text25,local,class=CODE,space=0,merge=1,delta=2
    48                           	psect	text26,local,class=CODE,space=0,merge=1,delta=2
    49                           	psect	text27,local,class=CODE,space=0,merge=1,delta=2
    50                           	psect	text28,local,class=CODE,space=0,merge=1,delta=2
    51                           	psect	text29,local,class=CODE,space=0,merge=1,delta=2
    52                           	psect	text30,local,class=CODE,space=0,merge=1,delta=2
    53                           	psect	text31,local,class=CODE,space=0,merge=1,delta=2,group=1
    54                           	psect	text32,local,class=CODE,space=0,merge=1,delta=2
    55                           	psect	text33,local,class=CODE,space=0,merge=1,delta=2
    56                           	psect	text34,local,class=CODE,space=0,merge=1,delta=2
    57                           	psect	text35,local,class=CODE,space=0,merge=1,delta=2
    58                           	psect	text36,local,class=CODE,space=0,merge=1,delta=2
    59                           	psect	text37,local,class=CODE,space=0,merge=1,delta=2
    60                           	psect	text38,local,class=CODE,space=0,merge=1,delta=2
    61                           	psect	text39,local,class=CODE,space=0,merge=1,delta=2
    62                           	psect	text40,local,class=CODE,space=0,merge=1,delta=2
    63                           	psect	text41,local,class=CODE,space=0,merge=1,delta=2
    64                           	psect	text42,local,class=CODE,space=0,merge=1,delta=2
    65                           	psect	text43,local,class=CODE,space=0,merge=1,delta=2
    66                           	psect	text44,local,class=CODE,space=0,merge=1,delta=2
    67                           	psect	text45,local,class=CODE,space=0,merge=1,delta=2
    68                           	psect	text46,local,class=CODE,space=0,merge=1,delta=2
    69                           	psect	text47,local,class=CODE,space=0,merge=1,delta=2,group=2
    70                           	psect	text48,local,class=CODE,space=0,merge=1,delta=2
    71                           	psect	text49,local,class=CODE,space=0,merge=1,delta=2
    72                           	psect	text50,local,class=CODE,space=0,merge=1,delta=2
    73                           	psect	text51,local,class=CODE,space=0,merge=1,delta=2
    74                           	psect	text52,local,class=CODE,space=0,merge=1,delta=2
    75                           	psect	intentry,global,class=CODE,space=0,delta=2
    76                           	psect	config,global,abs,ovrld,class=CONFIG,space=4,delta=2,noexec
    77                           	dabs	1,0x7E,2
    78     0000                     
    79                           ; Generated 12/10/2023 GMT
    80                           ; 
    81                           ; Copyright © 2023, Microchip Technology Inc. and its subsidiaries ("Microchip")
    82                           ; All rights reserved.
    83                           ; 
    84                           ; This software is developed by Microchip Technology Inc. and its subsidiaries ("Microch
      +                          ip").
    85                           ; 
    86                           ; Redistribution and use in source and binary forms, with or without modification, are
    87                           ; permitted provided that the following conditions are met:
    88                           ; 
    89                           ;     1. Redistributions of source code must retain the above copyright notice, this lis
      +                          t of
    90                           ;        conditions and the following disclaimer.
    91                           ; 
    92                           ;     2. Redistributions in binary form must reproduce the above copyright notice, this 
      +                          list
    93                           ;        of conditions and the following disclaimer in the documentation and/or other
    94                           ;        materials provided with the distribution. Publication is not required when
    95                           ;        this file is used in an embedded application.
    96                           ; 
    97                           ;     3. Microchip's name may not be used to endorse or promote products derived from th
      +                          is
    98                           ;        software without specific prior written permission.
    99                           ; 
   100                           ; THIS SOFTWARE IS PROVIDED BY MICROCHIP "AS IS" AND ANY EXPRESS OR IMPLIED WARRANTIES,
   101                           ; INCLUDING, BUT NOT LIMITED TO, THE IMPLIED WARRANTIES OF MERCHANTABILITY AND FITNESS F
      +                          OR
   102                           ; PURPOSE ARE DISCLAIMED.  IN NO EVENT SHALL MICROCHIP BE LIABLE FOR ANY DIRECT, INDIREC
      +                          T,
   103                           ; INCIDENTAL, SPECIAL, EXEMPLARY, OR CONSEQUENTIAL DAMAGES (INCLUDING BUT NOT LIMITED TO
   104                           ; PROCUREMENT OF SUBSTITUTE GOODS OR SERVICES; LOSS OF USE, DATA OR PROFITS; OR BUSINESS
   105                           ; INTERRUPTION) HOWSOEVER CAUSED AND ON ANY THEORY OF LIABILITY, WHETHER IN CONTRACT, ST
      +                          RICT
   106                           ; LIABILITY, OR TORT (INCLUDING NEGLIGENCE OR OTHERWISE) ARISING IN ANY WAY OUT OF THE U
      +                          SE OF
   107                           ; THIS SOFTWARE, EVEN IF ADVISED OF THE POSSIBILITY OF SUCH DAMAGE.
   108                           ; 
   109                           ; 
   110                           ; Code-generator required, PIC16F877A Definitions
   111                           ; 
   112                           ; SFR Addresses
   113     0004                     fsr             equ	4
   114     0004                     fsr0            equ	4
   115     0000                     indf            equ	0
   116     0000                     indf0           equ	0
   117     0002                     pc              equ	2
   118     0002                     pcl             equ	2
   119     000A                     pclath          equ	10
   120     0003                     status          equ	3
   121     0000                     INDF            equ	0	;# 
   122     0001                     TMR0            equ	1	;# 
   123     0002                     PCL             equ	2	;# 
   124     0003                     STATUS          equ	3	;# 
   125     0004                     FSR             equ	4	;# 
   126     0005                     PORTA           equ	5	;# 
   127     0006                     PORTB           equ	6	;# 
   128     0007                     PORTC           equ	7	;# 
   129     0008                     PORTD           equ	8	;# 
   130     0009                     PORTE           equ	9	;# 
   131     000A                     PCLATH          equ	10	;# 
   132     000B                     INTCON          equ	11	;# 
   133     000C                     PIR1            equ	12	;# 
   134     000D                     PIR2            equ	13	;# 
   135     000E                     TMR1            equ	14	;# 
   136     000E                     TMR1L           equ	14	;# 
   137     000F                     TMR1H           equ	15	;# 
   138     0010                     T1CON           equ	16	;# 
   139     0011                     TMR2            equ	17	;# 
   140     0012                     T2CON           equ	18	;# 
   141     0013                     SSPBUF          equ	19	;# 
   142     0014                     SSPCON          equ	20	;# 
   143     0015                     CCPR1           equ	21	;# 
   144     0015                     CCPR1L          equ	21	;# 
   145     0016                     CCPR1H          equ	22	;# 
   146     0017                     CCP1CON         equ	23	;# 
   147     0018                     RCSTA           equ	24	;# 
   148     0019                     TXREG           equ	25	;# 
   149     001A                     RCREG           equ	26	;# 
   150     001B                     CCPR2           equ	27	;# 
   151     001B                     CCPR2L          equ	27	;# 
   152     001C                     CCPR2H          equ	28	;# 
   153     001D                     CCP2CON         equ	29	;# 
   154     001E                     ADRESH          equ	30	;# 
   155     001F                     ADCON0          equ	31	;# 
   156     0081                     OPTION_REG      equ	129	;# 
   157     0085                     TRISA           equ	133	;# 
   158     0086                     TRISB           equ	134	;# 
   159     0087                     TRISC           equ	135	;# 
   160     0088                     TRISD           equ	136	;# 
   161     0089                     TRISE           equ	137	;# 
   162     008C                     PIE1            equ	140	;# 
   163     008D                     PIE2            equ	141	;# 
   164     008E                     PCON            equ	142	;# 
   165     0091                     SSPCON2         equ	145	;# 
   166     0092                     PR2             equ	146	;# 
   167     0093                     SSPADD          equ	147	;# 
   168     0094                     SSPSTAT         equ	148	;# 
   169     0098                     TXSTA           equ	152	;# 
   170     0099                     SPBRG           equ	153	;# 
   171     009C                     CMCON           equ	156	;# 
   172     009D                     CVRCON          equ	157	;# 
   173     009E                     ADRESL          equ	158	;# 
   174     009F                     ADCON1          equ	159	;# 
   175     010C                     EEDATA          equ	268	;# 
   176     010D                     EEADR           equ	269	;# 
   177     010E                     EEDATH          equ	270	;# 
   178     010F                     EEADRH          equ	271	;# 
   179     018C                     EECON1          equ	396	;# 
   180     018D                     EECON2          equ	397	;# 
   181     0000                     INDF            equ	0	;# 
   182     0001                     TMR0            equ	1	;# 
   183     0002                     PCL             equ	2	;# 
   184     0003                     STATUS          equ	3	;# 
   185     0004                     FSR             equ	4	;# 
   186     0005                     PORTA           equ	5	;# 
   187     0006                     PORTB           equ	6	;# 
   188     0007                     PORTC           equ	7	;# 
   189     0008                     PORTD           equ	8	;# 
   190     0009                     PORTE           equ	9	;# 
   191     000A                     PCLATH          equ	10	;# 
   192     000B                     INTCON          equ	11	;# 
   193     000C                     PIR1            equ	12	;# 
   194     000D                     PIR2            equ	13	;# 
   195     000E                     TMR1            equ	14	;# 
   196     000E                     TMR1L           equ	14	;# 
   197     000F                     TMR1H           equ	15	;# 
   198     0010                     T1CON           equ	16	;# 
   199     0011                     TMR2            equ	17	;# 
   200     0012                     T2CON           equ	18	;# 
   201     0013                     SSPBUF          equ	19	;# 
   202     0014                     SSPCON          equ	20	;# 
   203     0015                     CCPR1           equ	21	;# 
   204     0015                     CCPR1L          equ	21	;# 
   205     0016                     CCPR1H          equ	22	;# 
   206     0017                     CCP1CON         equ	23	;# 
   207     0018                     RCSTA           equ	24	;# 
   208     0019                     TXREG           equ	25	;# 
   209     001A                     RCREG           equ	26	;# 
   210     001B                     CCPR2           equ	27	;# 
   211     001B                     CCPR2L          equ	27	;# 
   212     001C                     CCPR2H          equ	28	;# 
   213     001D                     CCP2CON         equ	29	;# 
   214     001E                     ADRESH          equ	30	;# 
   215     001F                     ADCON0          equ	31	;# 
   216     0081                     OPTION_REG      equ	129	;# 
   217     0085                     TRISA           equ	133	;# 
   218     0086                     TRISB           equ	134	;# 
   219     0087                     TRISC           equ	135	;# 
   220     0088                     TRISD           equ	136	;# 
   221     0089                     TRISE           equ	137	;# 
   222     008C                     PIE1            equ	140	;# 
   223     008D                     PIE2            equ	141	;# 
   224     008E                     PCON            equ	142	;# 
   225     0091                     SSPCON2         equ	145	;# 
   226     0092                     PR2             equ	146	;# 
   227     0093                     SSPADD          equ	147	;# 
   228     0094                     SSPSTAT         equ	148	;# 
   229     0098                     TXSTA           equ	152	;# 
   230     0099                     SPBRG           equ	153	;# 
   231     009C                     CMCON           equ	156	;# 
   232     009D                     CVRCON          equ	157	;# 
   233     009E                     ADRESL          equ	158	;# 
   234     009F                     ADCON1          equ	159	;# 
   235     010C                     EEDATA          equ	268	;# 
   236     010D                     EEADR           equ	269	;# 
   237     010E                     EEDATH          equ	270	;# 
   238     010F                     EEADRH          equ	271	;# 
   239     018C                     EECON1          equ	396	;# 
   240     018D                     EECON2          equ	397	;# 
   241     0000                     INDF            equ	0	;# 
   242     0001                     TMR0            equ	1	;# 
   243     0002                     PCL             equ	2	;# 
   244     0003                     STATUS          equ	3	;# 
   245     0004                     FSR             equ	4	;# 
   246     0005                     PORTA           equ	5	;# 
   247     0006                     PORTB           equ	6	;# 
   248     0007                     PORTC           equ	7	;# 
   249     0008                     PORTD           equ	8	;# 
   250     0009                     PORTE           equ	9	;# 
   251     000A                     PCLATH          equ	10	;# 
   252     000B                     INTCON          equ	11	;# 
   253     000C                     PIR1            equ	12	;# 
   254     000D                     PIR2            equ	13	;# 
   255     000E                     TMR1            equ	14	;# 
   256     000E                     TMR1L           equ	14	;# 
   257     000F                     TMR1H           equ	15	;# 
   258     0010                     T1CON           equ	16	;# 
   259     0011                     TMR2            equ	17	;# 
   260     0012                     T2CON           equ	18	;# 
   261     0013                     SSPBUF          equ	19	;# 
   262     0014                     SSPCON          equ	20	;# 
   263     0015                     CCPR1           equ	21	;# 
   264     0015                     CCPR1L          equ	21	;# 
   265     0016                     CCPR1H          equ	22	;# 
   266     0017                     CCP1CON         equ	23	;# 
   267     0018                     RCSTA           equ	24	;# 
   268     0019                     TXREG           equ	25	;# 
   269     001A                     RCREG           equ	26	;# 
   270     001B                     CCPR2           equ	27	;# 
   271     001B                     CCPR2L          equ	27	;# 
   272     001C                     CCPR2H          equ	28	;# 
   273     001D                     CCP2CON         equ	29	;# 
   274     001E                     ADRESH          equ	30	;# 
   275     001F                     ADCON0          equ	31	;# 
   276     0081                     OPTION_REG      equ	129	;# 
   277     0085                     TRISA           equ	133	;# 
   278     0086                     TRISB           equ	134	;# 
   279     0087                     TRISC           equ	135	;# 
   280     0088                     TRISD           equ	136	;# 
   281     0089                     TRISE           equ	137	;# 
   282     008C                     PIE1            equ	140	;# 
   283     008D                     PIE2            equ	141	;# 
   284     008E                     PCON            equ	142	;# 
   285     0091                     SSPCON2         equ	145	;# 
   286     0092                     PR2             equ	146	;# 
   287     0093                     SSPADD          equ	147	;# 
   288     0094                     SSPSTAT         equ	148	;# 
   289     0098                     TXSTA           equ	152	;# 
   290     0099                     SPBRG           equ	153	;# 
   291     009C                     CMCON           equ	156	;# 
   292     009D                     CVRCON          equ	157	;# 
   293     009E                     ADRESL          equ	158	;# 
   294     009F                     ADCON1          equ	159	;# 
   295     010C                     EEDATA          equ	268	;# 
   296     010D                     EEADR           equ	269	;# 
   297     010E                     EEDATH          equ	270	;# 
   298     010F                     EEADRH          equ	271	;# 
   299     018C                     EECON1          equ	396	;# 
   300     018D                     EECON2          equ	397	;# 
   301     0000                     INDF            equ	0	;# 
   302     0001                     TMR0            equ	1	;# 
   303     0002                     PCL             equ	2	;# 
   304     0003                     STATUS          equ	3	;# 
   305     0004                     FSR             equ	4	;# 
   306     0005                     PORTA           equ	5	;# 
   307     0006                     PORTB           equ	6	;# 
   308     0007                     PORTC           equ	7	;# 
   309     0008                     PORTD           equ	8	;# 
   310     0009                     PORTE           equ	9	;# 
   311     000A                     PCLATH          equ	10	;# 
   312     000B                     INTCON          equ	11	;# 
   313     000C                     PIR1            equ	12	;# 
   314     000D                     PIR2            equ	13	;# 
   315     000E                     TMR1            equ	14	;# 
   316     000E                     TMR1L           equ	14	;# 
   317     000F                     TMR1H           equ	15	;# 
   318     0010                     T1CON           equ	16	;# 
   319     0011                     TMR2            equ	17	;# 
   320     0012                     T2CON           equ	18	;# 
   321     0013                     SSPBUF          equ	19	;# 
   322     0014                     SSPCON          equ	20	;# 
   323     0015                     CCPR1           equ	21	;# 
   324     0015                     CCPR1L          equ	21	;# 
   325     0016                     CCPR1H          equ	22	;# 
   326     0017                     CCP1CON         equ	23	;# 
   327     0018                     RCSTA           equ	24	;# 
   328     0019                     TXREG           equ	25	;# 
   329     001A                     RCREG           equ	26	;# 
   330     001B                     CCPR2           equ	27	;# 
   331     001B                     CCPR2L          equ	27	;# 
   332     001C                     CCPR2H          equ	28	;# 
   333     001D                     CCP2CON         equ	29	;# 
   334     001E                     ADRESH          equ	30	;# 
   335     001F                     ADCON0          equ	31	;# 
   336     0081                     OPTION_REG      equ	129	;# 
   337     0085                     TRISA           equ	133	;# 
   338     0086                     TRISB           equ	134	;# 
   339     0087                     TRISC           equ	135	;# 
   340     0088                     TRISD           equ	136	;# 
   341     0089                     TRISE           equ	137	;# 
   342     008C                     PIE1            equ	140	;# 
   343     008D                     PIE2            equ	141	;# 
   344     008E                     PCON            equ	142	;# 
   345     0091                     SSPCON2         equ	145	;# 
   346     0092                     PR2             equ	146	;# 
   347     0093                     SSPADD          equ	147	;# 
   348     0094                     SSPSTAT         equ	148	;# 
   349     0098                     TXSTA           equ	152	;# 
   350     0099                     SPBRG           equ	153	;# 
   351     009C                     CMCON           equ	156	;# 
   352     009D                     CVRCON          equ	157	;# 
   353     009E                     ADRESL          equ	158	;# 
   354     009F                     ADCON1          equ	159	;# 
   355     010C                     EEDATA          equ	268	;# 
   356     010D                     EEADR           equ	269	;# 
   357     010E                     EEDATH          equ	270	;# 
   358     010F                     EEADRH          equ	271	;# 
   359     018C                     EECON1          equ	396	;# 
   360     018D                     EECON2          equ	397	;# 
   361     0000                     INDF            equ	0	;# 
   362     0001                     TMR0            equ	1	;# 
   363     0002                     PCL             equ	2	;# 
   364     0003                     STATUS          equ	3	;# 
   365     0004                     FSR             equ	4	;# 
   366     0005                     PORTA           equ	5	;# 
   367     0006                     PORTB           equ	6	;# 
   368     0007                     PORTC           equ	7	;# 
   369     0008                     PORTD           equ	8	;# 
   370     0009                     PORTE           equ	9	;# 
   371     000A                     PCLATH          equ	10	;# 
   372     000B                     INTCON          equ	11	;# 
   373     000C                     PIR1            equ	12	;# 
   374     000D                     PIR2            equ	13	;# 
   375     000E                     TMR1            equ	14	;# 
   376     000E                     TMR1L           equ	14	;# 
   377     000F                     TMR1H           equ	15	;# 
   378     0010                     T1CON           equ	16	;# 
   379     0011                     TMR2            equ	17	;# 
   380     0012                     T2CON           equ	18	;# 
   381     0013                     SSPBUF          equ	19	;# 
   382     0014                     SSPCON          equ	20	;# 
   383     0015                     CCPR1           equ	21	;# 
   384     0015                     CCPR1L          equ	21	;# 
   385     0016                     CCPR1H          equ	22	;# 
   386     0017                     CCP1CON         equ	23	;# 
   387     0018                     RCSTA           equ	24	;# 
   388     0019                     TXREG           equ	25	;# 
   389     001A                     RCREG           equ	26	;# 
   390     001B                     CCPR2           equ	27	;# 
   391     001B                     CCPR2L          equ	27	;# 
   392     001C                     CCPR2H          equ	28	;# 
   393     001D                     CCP2CON         equ	29	;# 
   394     001E                     ADRESH          equ	30	;# 
   395     001F                     ADCON0          equ	31	;# 
   396     0081                     OPTION_REG      equ	129	;# 
   397     0085                     TRISA           equ	133	;# 
   398     0086                     TRISB           equ	134	;# 
   399     0087                     TRISC           equ	135	;# 
   400     0088                     TRISD           equ	136	;# 
   401     0089                     TRISE           equ	137	;# 
   402     008C                     PIE1            equ	140	;# 
   403     008D                     PIE2            equ	141	;# 
   404     008E                     PCON            equ	142	;# 
   405     0091                     SSPCON2         equ	145	;# 
   406     0092                     PR2             equ	146	;# 
   407     0093                     SSPADD          equ	147	;# 
   408     0094                     SSPSTAT         equ	148	;# 
   409     0098                     TXSTA           equ	152	;# 
   410     0099                     SPBRG           equ	153	;# 
   411     009C                     CMCON           equ	156	;# 
   412     009D                     CVRCON          equ	157	;# 
   413     009E                     ADRESL          equ	158	;# 
   414     009F                     ADCON1          equ	159	;# 
   415     010C                     EEDATA          equ	268	;# 
   416     010D                     EEADR           equ	269	;# 
   417     010E                     EEDATH          equ	270	;# 
   418     010F                     EEADRH          equ	271	;# 
   419     018C                     EECON1          equ	396	;# 
   420     018D                     EECON2          equ	397	;# 
   421     0000                     INDF            equ	0	;# 
   422     0001                     TMR0            equ	1	;# 
   423     0002                     PCL             equ	2	;# 
   424     0003                     STATUS          equ	3	;# 
   425     0004                     FSR             equ	4	;# 
   426     0005                     PORTA           equ	5	;# 
   427     0006                     PORTB           equ	6	;# 
   428     0007                     PORTC           equ	7	;# 
   429     0008                     PORTD           equ	8	;# 
   430     0009                     PORTE           equ	9	;# 
   431     000A                     PCLATH          equ	10	;# 
   432     000B                     INTCON          equ	11	;# 
   433     000C                     PIR1            equ	12	;# 
   434     000D                     PIR2            equ	13	;# 
   435     000E                     TMR1            equ	14	;# 
   436     000E                     TMR1L           equ	14	;# 
   437     000F                     TMR1H           equ	15	;# 
   438     0010                     T1CON           equ	16	;# 
   439     0011                     TMR2            equ	17	;# 
   440     0012                     T2CON           equ	18	;# 
   441     0013                     SSPBUF          equ	19	;# 
   442     0014                     SSPCON          equ	20	;# 
   443     0015                     CCPR1           equ	21	;# 
   444     0015                     CCPR1L          equ	21	;# 
   445     0016                     CCPR1H          equ	22	;# 
   446     0017                     CCP1CON         equ	23	;# 
   447     0018                     RCSTA           equ	24	;# 
   448     0019                     TXREG           equ	25	;# 
   449     001A                     RCREG           equ	26	;# 
   450     001B                     CCPR2           equ	27	;# 
   451     001B                     CCPR2L          equ	27	;# 
   452     001C                     CCPR2H          equ	28	;# 
   453     001D                     CCP2CON         equ	29	;# 
   454     001E                     ADRESH          equ	30	;# 
   455     001F                     ADCON0          equ	31	;# 
   456     0081                     OPTION_REG      equ	129	;# 
   457     0085                     TRISA           equ	133	;# 
   458     0086                     TRISB           equ	134	;# 
   459     0087                     TRISC           equ	135	;# 
   460     0088                     TRISD           equ	136	;# 
   461     0089                     TRISE           equ	137	;# 
   462     008C                     PIE1            equ	140	;# 
   463     008D                     PIE2            equ	141	;# 
   464     008E                     PCON            equ	142	;# 
   465     0091                     SSPCON2         equ	145	;# 
   466     0092                     PR2             equ	146	;# 
   467     0093                     SSPADD          equ	147	;# 
   468     0094                     SSPSTAT         equ	148	;# 
   469     0098                     TXSTA           equ	152	;# 
   470     0099                     SPBRG           equ	153	;# 
   471     009C                     CMCON           equ	156	;# 
   472     009D                     CVRCON          equ	157	;# 
   473     009E                     ADRESL          equ	158	;# 
   474     009F                     ADCON1          equ	159	;# 
   475     010C                     EEDATA          equ	268	;# 
   476     010D                     EEADR           equ	269	;# 
   477     010E                     EEDATH          equ	270	;# 
   478     010F                     EEADRH          equ	271	;# 
   479     018C                     EECON1          equ	396	;# 
   480     018D                     EECON2          equ	397	;# 
   481     0000                     INDF            equ	0	;# 
   482     0001                     TMR0            equ	1	;# 
   483     0002                     PCL             equ	2	;# 
   484     0003                     STATUS          equ	3	;# 
   485     0004                     FSR             equ	4	;# 
   486     0005                     PORTA           equ	5	;# 
   487     0006                     PORTB           equ	6	;# 
   488     0007                     PORTC           equ	7	;# 
   489     0008                     PORTD           equ	8	;# 
   490     0009                     PORTE           equ	9	;# 
   491     000A                     PCLATH          equ	10	;# 
   492     000B                     INTCON          equ	11	;# 
   493     000C                     PIR1            equ	12	;# 
   494     000D                     PIR2            equ	13	;# 
   495     000E                     TMR1            equ	14	;# 
   496     000E                     TMR1L           equ	14	;# 
   497     000F                     TMR1H           equ	15	;# 
   498     0010                     T1CON           equ	16	;# 
   499     0011                     TMR2            equ	17	;# 
   500     0012                     T2CON           equ	18	;# 
   501     0013                     SSPBUF          equ	19	;# 
   502     0014                     SSPCON          equ	20	;# 
   503     0015                     CCPR1           equ	21	;# 
   504     0015                     CCPR1L          equ	21	;# 
   505     0016                     CCPR1H          equ	22	;# 
   506     0017                     CCP1CON         equ	23	;# 
   507     0018                     RCSTA           equ	24	;# 
   508     0019                     TXREG           equ	25	;# 
   509     001A                     RCREG           equ	26	;# 
   510     001B                     CCPR2           equ	27	;# 
   511     001B                     CCPR2L          equ	27	;# 
   512     001C                     CCPR2H          equ	28	;# 
   513     001D                     CCP2CON         equ	29	;# 
   514     001E                     ADRESH          equ	30	;# 
   515     001F                     ADCON0          equ	31	;# 
   516     0081                     OPTION_REG      equ	129	;# 
   517     0085                     TRISA           equ	133	;# 
   518     0086                     TRISB           equ	134	;# 
   519     0087                     TRISC           equ	135	;# 
   520     0088                     TRISD           equ	136	;# 
   521     0089                     TRISE           equ	137	;# 
   522     008C                     PIE1            equ	140	;# 
   523     008D                     PIE2            equ	141	;# 
   524     008E                     PCON            equ	142	;# 
   525     0091                     SSPCON2         equ	145	;# 
   526     0092                     PR2             equ	146	;# 
   527     0093                     SSPADD          equ	147	;# 
   528     0094                     SSPSTAT         equ	148	;# 
   529     0098                     TXSTA           equ	152	;# 
   530     0099                     SPBRG           equ	153	;# 
   531     009C                     CMCON           equ	156	;# 
   532     009D                     CVRCON          equ	157	;# 
   533     009E                     ADRESL          equ	158	;# 
   534     009F                     ADCON1          equ	159	;# 
   535     010C                     EEDATA          equ	268	;# 
   536     010D                     EEADR           equ	269	;# 
   537     010E                     EEDATH          equ	270	;# 
   538     010F                     EEADRH          equ	271	;# 
   539     018C                     EECON1          equ	396	;# 
   540     018D                     EECON2          equ	397	;# 
   541     0000                     INDF            equ	0	;# 
   542     0001                     TMR0            equ	1	;# 
   543     0002                     PCL             equ	2	;# 
   544     0003                     STATUS          equ	3	;# 
   545     0004                     FSR             equ	4	;# 
   546     0005                     PORTA           equ	5	;# 
   547     0006                     PORTB           equ	6	;# 
   548     0007                     PORTC           equ	7	;# 
   549     0008                     PORTD           equ	8	;# 
   550     0009                     PORTE           equ	9	;# 
   551     000A                     PCLATH          equ	10	;# 
   552     000B                     INTCON          equ	11	;# 
   553     000C                     PIR1            equ	12	;# 
   554     000D                     PIR2            equ	13	;# 
   555     000E                     TMR1            equ	14	;# 
   556     000E                     TMR1L           equ	14	;# 
   557     000F                     TMR1H           equ	15	;# 
   558     0010                     T1CON           equ	16	;# 
   559     0011                     TMR2            equ	17	;# 
   560     0012                     T2CON           equ	18	;# 
   561     0013                     SSPBUF          equ	19	;# 
   562     0014                     SSPCON          equ	20	;# 
   563     0015                     CCPR1           equ	21	;# 
   564     0015                     CCPR1L          equ	21	;# 
   565     0016                     CCPR1H          equ	22	;# 
   566     0017                     CCP1CON         equ	23	;# 
   567     0018                     RCSTA           equ	24	;# 
   568     0019                     TXREG           equ	25	;# 
   569     001A                     RCREG           equ	26	;# 
   570     001B                     CCPR2           equ	27	;# 
   571     001B                     CCPR2L          equ	27	;# 
   572     001C                     CCPR2H          equ	28	;# 
   573     001D                     CCP2CON         equ	29	;# 
   574     001E                     ADRESH          equ	30	;# 
   575     001F                     ADCON0          equ	31	;# 
   576     0081                     OPTION_REG      equ	129	;# 
   577     0085                     TRISA           equ	133	;# 
   578     0086                     TRISB           equ	134	;# 
   579     0087                     TRISC           equ	135	;# 
   580     0088                     TRISD           equ	136	;# 
   581     0089                     TRISE           equ	137	;# 
   582     008C                     PIE1            equ	140	;# 
   583     008D                     PIE2            equ	141	;# 
   584     008E                     PCON            equ	142	;# 
   585     0091                     SSPCON2         equ	145	;# 
   586     0092                     PR2             equ	146	;# 
   587     0093                     SSPADD          equ	147	;# 
   588     0094                     SSPSTAT         equ	148	;# 
   589     0098                     TXSTA           equ	152	;# 
   590     0099                     SPBRG           equ	153	;# 
   591     009C                     CMCON           equ	156	;# 
   592     009D                     CVRCON          equ	157	;# 
   593     009E                     ADRESL          equ	158	;# 
   594     009F                     ADCON1          equ	159	;# 
   595     010C                     EEDATA          equ	268	;# 
   596     010D                     EEADR           equ	269	;# 
   597     010E                     EEDATH          equ	270	;# 
   598     010F                     EEADRH          equ	271	;# 
   599     018C                     EECON1          equ	396	;# 
   600     018D                     EECON2          equ	397	;# 
   601     0000                     INDF            equ	0	;# 
   602     0001                     TMR0            equ	1	;# 
   603     0002                     PCL             equ	2	;# 
   604     0003                     STATUS          equ	3	;# 
   605     0004                     FSR             equ	4	;# 
   606     0005                     PORTA           equ	5	;# 
   607     0006                     PORTB           equ	6	;# 
   608     0007                     PORTC           equ	7	;# 
   609     0008                     PORTD           equ	8	;# 
   610     0009                     PORTE           equ	9	;# 
   611     000A                     PCLATH          equ	10	;# 
   612     000B                     INTCON          equ	11	;# 
   613     000C                     PIR1            equ	12	;# 
   614     000D                     PIR2            equ	13	;# 
   615     000E                     TMR1            equ	14	;# 
   616     000E                     TMR1L           equ	14	;# 
   617     000F                     TMR1H           equ	15	;# 
   618     0010                     T1CON           equ	16	;# 
   619     0011                     TMR2            equ	17	;# 
   620     0012                     T2CON           equ	18	;# 
   621     0013                     SSPBUF          equ	19	;# 
   622     0014                     SSPCON          equ	20	;# 
   623     0015                     CCPR1           equ	21	;# 
   624     0015                     CCPR1L          equ	21	;# 
   625     0016                     CCPR1H          equ	22	;# 
   626     0017                     CCP1CON         equ	23	;# 
   627     0018                     RCSTA           equ	24	;# 
   628     0019                     TXREG           equ	25	;# 
   629     001A                     RCREG           equ	26	;# 
   630     001B                     CCPR2           equ	27	;# 
   631     001B                     CCPR2L          equ	27	;# 
   632     001C                     CCPR2H          equ	28	;# 
   633     001D                     CCP2CON         equ	29	;# 
   634     001E                     ADRESH          equ	30	;# 
   635     001F                     ADCON0          equ	31	;# 
   636     0081                     OPTION_REG      equ	129	;# 
   637     0085                     TRISA           equ	133	;# 
   638     0086                     TRISB           equ	134	;# 
   639     0087                     TRISC           equ	135	;# 
   640     0088                     TRISD           equ	136	;# 
   641     0089                     TRISE           equ	137	;# 
   642     008C                     PIE1            equ	140	;# 
   643     008D                     PIE2            equ	141	;# 
   644     008E                     PCON            equ	142	;# 
   645     0091                     SSPCON2         equ	145	;# 
   646     0092                     PR2             equ	146	;# 
   647     0093                     SSPADD          equ	147	;# 
   648     0094                     SSPSTAT         equ	148	;# 
   649     0098                     TXSTA           equ	152	;# 
   650     0099                     SPBRG           equ	153	;# 
   651     009C                     CMCON           equ	156	;# 
   652     009D                     CVRCON          equ	157	;# 
   653     009E                     ADRESL          equ	158	;# 
   654     009F                     ADCON1          equ	159	;# 
   655     010C                     EEDATA          equ	268	;# 
   656     010D                     EEADR           equ	269	;# 
   657     010E                     EEDATH          equ	270	;# 
   658     010F                     EEADRH          equ	271	;# 
   659     018C                     EECON1          equ	396	;# 
   660     018D                     EECON2          equ	397	;# 
   661     0000                     INDF            equ	0	;# 
   662     0001                     TMR0            equ	1	;# 
   663     0002                     PCL             equ	2	;# 
   664     0003                     STATUS          equ	3	;# 
   665     0004                     FSR             equ	4	;# 
   666     0005                     PORTA           equ	5	;# 
   667     0006                     PORTB           equ	6	;# 
   668     0007                     PORTC           equ	7	;# 
   669     0008                     PORTD           equ	8	;# 
   670     0009                     PORTE           equ	9	;# 
   671     000A                     PCLATH          equ	10	;# 
   672     000B                     INTCON          equ	11	;# 
   673     000C                     PIR1            equ	12	;# 
   674     000D                     PIR2            equ	13	;# 
   675     000E                     TMR1            equ	14	;# 
   676     000E                     TMR1L           equ	14	;# 
   677     000F                     TMR1H           equ	15	;# 
   678     0010                     T1CON           equ	16	;# 
   679     0011                     TMR2            equ	17	;# 
   680     0012                     T2CON           equ	18	;# 
   681     0013                     SSPBUF          equ	19	;# 
   682     0014                     SSPCON          equ	20	;# 
   683     0015                     CCPR1           equ	21	;# 
   684     0015                     CCPR1L          equ	21	;# 
   685     0016                     CCPR1H          equ	22	;# 
   686     0017                     CCP1CON         equ	23	;# 
   687     0018                     RCSTA           equ	24	;# 
   688     0019                     TXREG           equ	25	;# 
   689     001A                     RCREG           equ	26	;# 
   690     001B                     CCPR2           equ	27	;# 
   691     001B                     CCPR2L          equ	27	;# 
   692     001C                     CCPR2H          equ	28	;# 
   693     001D                     CCP2CON         equ	29	;# 
   694     001E                     ADRESH          equ	30	;# 
   695     001F                     ADCON0          equ	31	;# 
   696     0081                     OPTION_REG      equ	129	;# 
   697     0085                     TRISA           equ	133	;# 
   698     0086                     TRISB           equ	134	;# 
   699     0087                     TRISC           equ	135	;# 
   700     0088                     TRISD           equ	136	;# 
   701     0089                     TRISE           equ	137	;# 
   702     008C                     PIE1            equ	140	;# 
   703     008D                     PIE2            equ	141	;# 
   704     008E                     PCON            equ	142	;# 
   705     0091                     SSPCON2         equ	145	;# 
   706     0092                     PR2             equ	146	;# 
   707     0093                     SSPADD          equ	147	;# 
   708     0094                     SSPSTAT         equ	148	;# 
   709     0098                     TXSTA           equ	152	;# 
   710     0099                     SPBRG           equ	153	;# 
   711     009C                     CMCON           equ	156	;# 
   712     009D                     CVRCON          equ	157	;# 
   713     009E                     ADRESL          equ	158	;# 
   714     009F                     ADCON1          equ	159	;# 
   715     010C                     EEDATA          equ	268	;# 
   716     010D                     EEADR           equ	269	;# 
   717     010E                     EEDATH          equ	270	;# 
   718     010F                     EEADRH          equ	271	;# 
   719     018C                     EECON1          equ	396	;# 
   720     018D                     EECON2          equ	397	;# 
   721     0000                     INDF            equ	0	;# 
   722     0001                     TMR0            equ	1	;# 
   723     0002                     PCL             equ	2	;# 
   724     0003                     STATUS          equ	3	;# 
   725     0004                     FSR             equ	4	;# 
   726     0005                     PORTA           equ	5	;# 
   727     0006                     PORTB           equ	6	;# 
   728     0007                     PORTC           equ	7	;# 
   729     0008                     PORTD           equ	8	;# 
   730     0009                     PORTE           equ	9	;# 
   731     000A                     PCLATH          equ	10	;# 
   732     000B                     INTCON          equ	11	;# 
   733     000C                     PIR1            equ	12	;# 
   734     000D                     PIR2            equ	13	;# 
   735     000E                     TMR1            equ	14	;# 
   736     000E                     TMR1L           equ	14	;# 
   737     000F                     TMR1H           equ	15	;# 
   738     0010                     T1CON           equ	16	;# 
   739     0011                     TMR2            equ	17	;# 
   740     0012                     T2CON           equ	18	;# 
   741     0013                     SSPBUF          equ	19	;# 
   742     0014                     SSPCON          equ	20	;# 
   743     0015                     CCPR1           equ	21	;# 
   744     0015                     CCPR1L          equ	21	;# 
   745     0016                     CCPR1H          equ	22	;# 
   746     0017                     CCP1CON         equ	23	;# 
   747     0018                     RCSTA           equ	24	;# 
   748     0019                     TXREG           equ	25	;# 
   749     001A                     RCREG           equ	26	;# 
   750     001B                     CCPR2           equ	27	;# 
   751     001B                     CCPR2L          equ	27	;# 
   752     001C                     CCPR2H          equ	28	;# 
   753     001D                     CCP2CON         equ	29	;# 
   754     001E                     ADRESH          equ	30	;# 
   755     001F                     ADCON0          equ	31	;# 
   756     0081                     OPTION_REG      equ	129	;# 
   757     0085                     TRISA           equ	133	;# 
   758     0086                     TRISB           equ	134	;# 
   759     0087                     TRISC           equ	135	;# 
   760     0088                     TRISD           equ	136	;# 
   761     0089                     TRISE           equ	137	;# 
   762     008C                     PIE1            equ	140	;# 
   763     008D                     PIE2            equ	141	;# 
   764     008E                     PCON            equ	142	;# 
   765     0091                     SSPCON2         equ	145	;# 
   766     0092                     PR2             equ	146	;# 
   767     0093                     SSPADD          equ	147	;# 
   768     0094                     SSPSTAT         equ	148	;# 
   769     0098                     TXSTA           equ	152	;# 
   770     0099                     SPBRG           equ	153	;# 
   771     009C                     CMCON           equ	156	;# 
   772     009D                     CVRCON          equ	157	;# 
   773     009E                     ADRESL          equ	158	;# 
   774     009F                     ADCON1          equ	159	;# 
   775     010C                     EEDATA          equ	268	;# 
   776     010D                     EEADR           equ	269	;# 
   777     010E                     EEDATH          equ	270	;# 
   778     010F                     EEADRH          equ	271	;# 
   779     018C                     EECON1          equ	396	;# 
   780     018D                     EECON2          equ	397	;# 
   781     0000                     INDF            equ	0	;# 
   782     0001                     TMR0            equ	1	;# 
   783     0002                     PCL             equ	2	;# 
   784     0003                     STATUS          equ	3	;# 
   785     0004                     FSR             equ	4	;# 
   786     0005                     PORTA           equ	5	;# 
   787     0006                     PORTB           equ	6	;# 
   788     0007                     PORTC           equ	7	;# 
   789     0008                     PORTD           equ	8	;# 
   790     0009                     PORTE           equ	9	;# 
   791     000A                     PCLATH          equ	10	;# 
   792     000B                     INTCON          equ	11	;# 
   793     000C                     PIR1            equ	12	;# 
   794     000D                     PIR2            equ	13	;# 
   795     000E                     TMR1            equ	14	;# 
   796     000E                     TMR1L           equ	14	;# 
   797     000F                     TMR1H           equ	15	;# 
   798     0010                     T1CON           equ	16	;# 
   799     0011                     TMR2            equ	17	;# 
   800     0012                     T2CON           equ	18	;# 
   801     0013                     SSPBUF          equ	19	;# 
   802     0014                     SSPCON          equ	20	;# 
   803     0015                     CCPR1           equ	21	;# 
   804     0015                     CCPR1L          equ	21	;# 
   805     0016                     CCPR1H          equ	22	;# 
   806     0017                     CCP1CON         equ	23	;# 
   807     0018                     RCSTA           equ	24	;# 
   808     0019                     TXREG           equ	25	;# 
   809     001A                     RCREG           equ	26	;# 
   810     001B                     CCPR2           equ	27	;# 
   811     001B                     CCPR2L          equ	27	;# 
   812     001C                     CCPR2H          equ	28	;# 
   813     001D                     CCP2CON         equ	29	;# 
   814     001E                     ADRESH          equ	30	;# 
   815     001F                     ADCON0          equ	31	;# 
   816     0081                     OPTION_REG      equ	129	;# 
   817     0085                     TRISA           equ	133	;# 
   818     0086                     TRISB           equ	134	;# 
   819     0087                     TRISC           equ	135	;# 
   820     0088                     TRISD           equ	136	;# 
   821     0089                     TRISE           equ	137	;# 
   822     008C                     PIE1            equ	140	;# 
   823     008D                     PIE2            equ	141	;# 
   824     008E                     PCON            equ	142	;# 
   825     0091                     SSPCON2         equ	145	;# 
   826     0092                     PR2             equ	146	;# 
   827     0093                     SSPADD          equ	147	;# 
   828     0094                     SSPSTAT         equ	148	;# 
   829     0098                     TXSTA           equ	152	;# 
   830     0099                     SPBRG           equ	153	;# 
   831     009C                     CMCON           equ	156	;# 
   832     009D                     CVRCON          equ	157	;# 
   833     009E                     ADRESL          equ	158	;# 
   834     009F                     ADCON1          equ	159	;# 
   835     010C                     EEDATA          equ	268	;# 
   836     010D                     EEADR           equ	269	;# 
   837     010E                     EEDATH          equ	270	;# 
   838     010F                     EEADRH          equ	271	;# 
   839     018C                     EECON1          equ	396	;# 
   840     018D                     EECON2          equ	397	;# 
   841                           
   842                           	psect	idataCOMMON
   843     0003                     __pidataCOMMON:
   844                           
   845                           ;initializer for read_digital_keypad@once
   846     0003  3401               	retlw	1
   847                           
   848                           	psect	idataBANK0
   849     13BA                     __pidataBANK0:
   850                           
   851                           ;initializer for _event_count
   852     13BA  34FF               	retlw	255
   853     13BB  34FF               	retlw	255
   854                           
   855                           ;initializer for _event
   856     13BC  344F               	retlw	79
   857     13BD  344E               	retlw	78
   858     13BE  3400               	retlw	0
   859                           
   860                           	psect	idataBANK1
   861     1431                     __pidataBANK1:
   862                           
   863                           ;initializer for _menu
   864     1431  3479               	retlw	low (STR_12| (0+32768))
   865     1432  3486               	retlw	high (STR_12| (0+32768))
   866     1433  3466               	retlw	low (STR_13| (0+32768))
   867     1434  3486               	retlw	high (STR_13| (0+32768))
   868     1435  3416               	retlw	low (STR_14| (0+32768))
   869     1436  3486               	retlw	high (STR_14| (0+32768))
   870     1437  3442               	retlw	low (STR_15| (0+32768))
   871     1438  3486               	retlw	high (STR_15| (0+32768))
   872     1439  3470               	retlw	low (STR_16| (0+32768))
   873     143A  3486               	retlw	high (STR_16| (0+32768))
   874                           
   875                           ;initializer for _pass
   876     143B  3431               	retlw	49
   877     143C  3432               	retlw	50
   878     143D  3431               	retlw	49
   879     143E  3432               	retlw	50
   880     143F  3400               	retlw	0
   881                           
   882                           	psect	idataBANK3
   883     04F4                     __pidataBANK3:
   884                           
   885                           ;initializer for _gear
   886     04F4  349D               	retlw	low (STR_1| (0+32768))
   887     04F5  3486               	retlw	high (STR_1| (0+32768))
   888     04F6  34A3               	retlw	low (STR_2| (0+32768))
   889     04F7  3486               	retlw	high (STR_2| (0+32768))
   890     04F8  348E               	retlw	low (STR_3| (0+32768))
   891     04F9  3486               	retlw	high (STR_3| (0+32768))
   892     04FA  3491               	retlw	low (STR_4| (0+32768))
   893     04FB  3486               	retlw	high (STR_4| (0+32768))
   894     04FC  3494               	retlw	low (STR_5| (0+32768))
   895     04FD  3486               	retlw	high (STR_5| (0+32768))
   896     04FE  3497               	retlw	low (STR_6| (0+32768))
   897     04FF  3486               	retlw	high (STR_6| (0+32768))
   898     0019                     _TXREG          set	25
   899     001A                     _RCREG          set	26
   900     0001                     _TMR0           set	1
   901     0006                     _PORTB          set	6
   902     0013                     _SSPBUF         set	19
   903     0008                     _PORTD          set	8
   904     001E                     _ADRESH         set	30
   905     0064                     _TXIF           set	100
   906     0065                     _RCIF           set	101
   907     00C4                     _CREN           set	196
   908     00C7                     _SPEN           set	199
   909     005A                     _TMR0IF         set	90
   910     00A5                     _SSPEN          set	165
   911     00A3                     _SSPM3          set	163
   912     0049                     _RE1            set	73
   913     004A                     _RE2            set	74
   914     00FA                     _nDONE          set	250
   915     00FA                     _GO             set	250
   916     00F8                     _ADON           set	248
   917     005D                     _TMR0IE         set	93
   918     005E                     _PEIE           set	94
   919     005F                     _GIE            set	95
   920     0099                     _SPBRG          set	153
   921     0086                     _TRISB          set	134
   922     0091                     _SSPCON2        set	145
   923     0093                     _SSPADD         set	147
   924     0088                     _TRISD          set	136
   925     009E                     _ADRESL         set	158
   926     040B                     _PSA            set	1035
   927     040D                     _T0CS           set	1037
   928     048E                     _ACKSTAT        set	1166
   929     048C                     _ACKEN          set	1164
   930     048D                     _ACKDT          set	1165
   931     048B                     _RCEN           set	1163
   932     048A                     _PEN            set	1162
   933     0488                     _SEN            set	1160
   934     04A2                     _R_nW           set	1186
   935     0449                     _TRISE1         set	1097
   936     044A                     _TRISE2         set	1098
   937     04FF                     _ADFM           set	1279
   938                           
   939                           	psect	strings
   940     07EE                     __pstrings:
   941     07EE                     stringtab:
   942     07EE                     __stringtab:
   943                           
   944                           ;	String table - string pointers are 2 bytes each
   945     07EE  1BFF               	btfsc	btemp+1,7
   946     07EF  2FF8               	ljmp	stringcode
   947     07F0  1383               	bcf	3,7
   948     07F1  187F               	btfsc	btemp+1,0
   949     07F2  1783               	bsf	3,7
   950     07F3  0800               	movf	0,w
   951     07F4  0A84               	incf	4,f
   952     07F5  1903               	skipnz
   953     07F6  0AFF               	incf	btemp+1,f
   954     07F7  0008               	return
   955     07F8                     stringcode:
   956     07F8  087F               	movf	btemp+1,w
   957     07F9  397F               	andlw	127
   958     07FA  008A               	movwf	10
   959     07FB  0804               	movf	4,w
   960     07FC  0A84               	incf	4,f
   961     07FD  1903               	skipnz
   962     07FE  0AFF               	incf	btemp+1,f
   963     07FF  0082               	movwf	2
   964     0800                     __stringbase:
   965     0800                     __end_of__stringtab:
   966                           
   967                           	psect	stringtext
   968     0500                     __pstringtext:
   969     0500                     STR_41:
   970     0500  344E               	retlw	78	;'N'
   971     0501  344F               	retlw	79	;'O'
   972     0502  3420               	retlw	32	;' '
   973     0503  344C               	retlw	76	;'L'
   974     0504  344F               	retlw	79	;'O'
   975     0505  3447               	retlw	71	;'G'
   976     0506  3453               	retlw	83	;'S'
   977     0507  3420               	retlw	32	;' '
   978     0508  3454               	retlw	84	;'T'
   979     0509  344F               	retlw	79	;'O'
   980     050A  3420               	retlw	32	;' '
   981     050B  3444               	retlw	68	;'D'
   982     050C  344F               	retlw	79	;'O'
   983     050D  3457               	retlw	87	;'W'
   984     050E  344E               	retlw	78	;'N'
   985     050F  344C               	retlw	76	;'L'
   986     0510  344F               	retlw	79	;'O'
   987     0511  3441               	retlw	65	;'A'
   988     0512  3444               	retlw	68	;'D'
   989     0513  3420               	retlw	32	;' '
   990     0514  3421               	retlw	33	;'!'
   991     0515  3400               	retlw	0
   992     0516                     STR_42:
   993     0516  344E               	retlw	78	;'N'
   994     0517  346F               	retlw	111	;'o'
   995     0518  3420               	retlw	32	;' '
   996     0519  346C               	retlw	108	;'l'
   997     051A  346F               	retlw	111	;'o'
   998     051B  3467               	retlw	103	;'g'
   999     051C  3473               	retlw	115	;'s'
  1000     051D  3420               	retlw	32	;' '
  1001     051E  3474               	retlw	116	;'t'
  1002     051F  346F               	retlw	111	;'o'
  1003     0520  3420               	retlw	32	;' '
  1004     0521  3464               	retlw	100	;'d'
  1005     0522  3477               	retlw	119	;'w'
  1006     0523  346E               	retlw	110	;'n'
  1007     0524  346C               	retlw	108	;'l'
  1008     0525  346F               	retlw	111	;'o'
  1009     0526  3461               	retlw	97	;'a'
  1010     0527  3464               	retlw	100	;'d'
  1011     0528  3420               	retlw	32	;' '
  1012     0529  3421               	retlw	33	;'!'
  1013     052A  3400               	retlw	0
  1014     052B                     STR_33:
  1015     052B  346E               	retlw	110	;'n'
  1016     052C  346F               	retlw	111	;'o'
  1017     052D  3474               	retlw	116	;'t'
  1018     052E  3468               	retlw	104	;'h'
  1019     052F  3469               	retlw	105	;'i'
  1020     0530  346E               	retlw	110	;'n'
  1021     0531  3467               	retlw	103	;'g'
  1022     0532  3420               	retlw	32	;' '
  1023     0533  3474               	retlw	116	;'t'
  1024     0534  346F               	retlw	111	;'o'
  1025     0535  3420               	retlw	32	;' '
  1026     0536  3463               	retlw	99	;'c'
  1027     0537  346C               	retlw	108	;'l'
  1028     0538  3465               	retlw	101	;'e'
  1029     0539  3461               	retlw	97	;'a'
  1030     053A  3472               	retlw	114	;'r'
  1031     053B  3420               	retlw	32	;' '
  1032     053C  342E               	retlw	46	;'.'
  1033     053D  342E               	retlw	46	;'.'
  1034     053E  3400               	retlw	0
  1035     053F                     STR_22:
  1036     053F  3420               	retlw	32	;' '
  1037     0540  3445               	retlw	69	;'E'
  1038     0541  344E               	retlw	78	;'N'
  1039     0542  3454               	retlw	84	;'T'
  1040     0543  3445               	retlw	69	;'E'
  1041     0544  3452               	retlw	82	;'R'
  1042     0545  3420               	retlw	32	;' '
  1043     0546  3420               	retlw	32	;' '
  1044     0547  3450               	retlw	80	;'P'
  1045     0548  3441               	retlw	65	;'A'
  1046     0549  3453               	retlw	83	;'S'
  1047     054A  3453               	retlw	83	;'S'
  1048     054B  3457               	retlw	87	;'W'
  1049     054C  344F               	retlw	79	;'O'
  1050     054D  3452               	retlw	82	;'R'
  1051     054E  3444               	retlw	68	;'D'
  1052     054F  3420               	retlw	32	;' '
  1053     0550  3400               	retlw	0
  1054     0551                     STR_20:
  1055     0551  3420               	retlw	32	;' '
  1056     0552  3457               	retlw	87	;'W'
  1057     0553  3452               	retlw	82	;'R'
  1058     0554  344F               	retlw	79	;'O'
  1059     0555  344E               	retlw	78	;'N'
  1060     0556  3447               	retlw	71	;'G'
  1061     0557  3420               	retlw	32	;' '
  1062     0558  3450               	retlw	80	;'P'
  1063     0559  3441               	retlw	65	;'A'
  1064     055A  3453               	retlw	83	;'S'
  1065     055B  3453               	retlw	83	;'S'
  1066     055C  3457               	retlw	87	;'W'
  1067     055D  344F               	retlw	79	;'O'
  1068     055E  3452               	retlw	82	;'R'
  1069     055F  3444               	retlw	68	;'D'
  1070     0560  3420               	retlw	32	;' '
  1071     0561  3400               	retlw	0
  1072     0562                     STR_35:
  1073     0562  3454               	retlw	84	;'T'
  1074     0563  3449               	retlw	73	;'I'
  1075     0564  344D               	retlw	77	;'M'
  1076     0565  3445               	retlw	69	;'E'
  1077     0566  3420               	retlw	32	;' '
  1078     0567  3420               	retlw	32	;' '
  1079     0568  3428               	retlw	40	;'('
  1080     0569  3448               	retlw	72	;'H'
  1081     056A  3448               	retlw	72	;'H'
  1082     056B  343A               	retlw	58	;':'
  1083     056C  344D               	retlw	77	;'M'
  1084     056D  344D               	retlw	77	;'M'
  1085     056E  343A               	retlw	58	;':'
  1086     056F  3453               	retlw	83	;'S'
  1087     0570  3453               	retlw	83	;'S'
  1088     0571  3429               	retlw	41	;')'
  1089     0572  3400               	retlw	0
  1090     0573                     STR_23:
  1091     0573  3423               	retlw	35	;'#'
  1092     0574  3420               	retlw	32	;' '
  1093     0575  3454               	retlw	84	;'T'
  1094     0576  3449               	retlw	73	;'I'
  1095     0577  344D               	retlw	77	;'M'
  1096     0578  3445               	retlw	69	;'E'
  1097     0579  3420               	retlw	32	;' '
  1098     057A  3420               	retlw	32	;' '
  1099     057B  3420               	retlw	32	;' '
  1100     057C  3420               	retlw	32	;' '
  1101     057D  3420               	retlw	32	;' '
  1102     057E  3445               	retlw	69	;'E'
  1103     057F  3420               	retlw	32	;' '
  1104     0580  3420               	retlw	32	;' '
  1105     0581  3453               	retlw	83	;'S'
  1106     0582  3450               	retlw	80	;'P'
  1107     0583  3400               	retlw	0
  1108     0584                     STR_19:
  1109     0584  3457               	retlw	87	;'W'
  1110     0585  3461               	retlw	97	;'a'
  1111     0586  3469               	retlw	105	;'i'
  1112     0587  3474               	retlw	116	;'t'
  1113     0588  342E               	retlw	46	;'.'
  1114     0589  342E               	retlw	46	;'.'
  1115     058A  342E               	retlw	46	;'.'
  1116     058B  3466               	retlw	102	;'f'
  1117     058C  346F               	retlw	111	;'o'
  1118     058D  3472               	retlw	114	;'r'
  1119     058E  3420               	retlw	32	;' '
  1120     058F  3436               	retlw	54	;'6'
  1121     0590  3430               	retlw	48	;'0'
  1122     0591  3473               	retlw	115	;'s'
  1123     0592  3465               	retlw	101	;'e'
  1124     0593  3463               	retlw	99	;'c'
  1125     0594  3400               	retlw	0
  1126     0595                     STR_26:
  1127     0595  3445               	retlw	69	;'E'
  1128     0596  346E               	retlw	110	;'n'
  1129     0597  3474               	retlw	116	;'t'
  1130     0598  3465               	retlw	101	;'e'
  1131     0599  3472               	retlw	114	;'r'
  1132     059A  3420               	retlw	32	;' '
  1133     059B  344E               	retlw	78	;'N'
  1134     059C  3465               	retlw	101	;'e'
  1135     059D  3477               	retlw	119	;'w'
  1136     059E  3420               	retlw	32	;' '
  1137     059F  3450               	retlw	80	;'P'
  1138     05A0  3461               	retlw	97	;'a'
  1139     05A1  3473               	retlw	115	;'s'
  1140     05A2  3473               	retlw	115	;'s'
  1141     05A3  3457               	retlw	87	;'W'
  1142     05A4  3464               	retlw	100	;'d'
  1143     05A5  3400               	retlw	0
  1144     05A6                     STR_18:
  1145     05A6  3420               	retlw	32	;' '
  1146     05A7  3459               	retlw	89	;'Y'
  1147     05A8  346F               	retlw	111	;'o'
  1148     05A9  3475               	retlw	117	;'u'
  1149     05AA  3420               	retlw	32	;' '
  1150     05AB  3461               	retlw	97	;'a'
  1151     05AC  3472               	retlw	114	;'r'
  1152     05AD  3465               	retlw	101	;'e'
  1153     05AE  3420               	retlw	32	;' '
  1154     05AF  3462               	retlw	98	;'b'
  1155     05B0  346C               	retlw	108	;'l'
  1156     05B1  346F               	retlw	111	;'o'
  1157     05B2  3463               	retlw	99	;'c'
  1158     05B3  346B               	retlw	107	;'k'
  1159     05B4  3465               	retlw	101	;'e'
  1160     05B5  3464               	retlw	100	;'d'
  1161     05B6  3400               	retlw	0
  1162     05B7                     STR_7:
  1163     05B7  3455               	retlw	85	;'U'
  1164     05B8  3441               	retlw	65	;'A'
  1165     05B9  3452               	retlw	82	;'R'
  1166     05BA  3454               	retlw	84	;'T'
  1167     05BB  3420               	retlw	32	;' '
  1168     05BC  3454               	retlw	84	;'T'
  1169     05BD  3465               	retlw	101	;'e'
  1170     05BE  3473               	retlw	115	;'s'
  1171     05BF  3474               	retlw	116	;'t'
  1172     05C0  3420               	retlw	32	;' '
  1173     05C1  3443               	retlw	67	;'C'
  1174     05C2  346F               	retlw	111	;'o'
  1175     05C3  3464               	retlw	100	;'d'
  1176     05C4  3465               	retlw	101	;'e'
  1177     05C5  340A               	retlw	10
  1178     05C6  340D               	retlw	13
  1179     05C7  3400               	retlw	0
  1180     05C8                     STR_27:
  1181     05C8  3452               	retlw	82	;'R'
  1182     05C9  3465               	retlw	101	;'e'
  1183     05CA  3420               	retlw	32	;' '
  1184     05CB  3445               	retlw	69	;'E'
  1185     05CC  346E               	retlw	110	;'n'
  1186     05CD  3474               	retlw	116	;'t'
  1187     05CE  3465               	retlw	101	;'e'
  1188     05CF  3472               	retlw	114	;'r'
  1189     05D0  3420               	retlw	32	;' '
  1190     05D1  3450               	retlw	80	;'P'
  1191     05D2  3461               	retlw	97	;'a'
  1192     05D3  3473               	retlw	115	;'s'
  1193     05D4  3473               	retlw	115	;'s'
  1194     05D5  3457               	retlw	87	;'W'
  1195     05D6  3464               	retlw	100	;'d'
  1196     05D7  3400               	retlw	0
  1197     05D8                     STR_21:
  1198     05D8  3420               	retlw	32	;' '
  1199     05D9  3461               	retlw	97	;'a'
  1200     05DA  3474               	retlw	116	;'t'
  1201     05DB  3474               	retlw	116	;'t'
  1202     05DC  3465               	retlw	101	;'e'
  1203     05DD  346D               	retlw	109	;'m'
  1204     05DE  3470               	retlw	112	;'p'
  1205     05DF  3474               	retlw	116	;'t'
  1206     05E0  3420               	retlw	32	;' '
  1207     05E1  3472               	retlw	114	;'r'
  1208     05E2  3465               	retlw	101	;'e'
  1209     05E3  346D               	retlw	109	;'m'
  1210     05E4  3461               	retlw	97	;'a'
  1211     05E5  3469               	retlw	105	;'i'
  1212     05E6  346E               	retlw	110	;'n'
  1213     05E7  3400               	retlw	0
  1214     05E8                     STR_24:
  1215     05E8  344E               	retlw	78	;'N'
  1216     05E9  346F               	retlw	111	;'o'
  1217     05EA  3420               	retlw	32	;' '
  1218     05EB  346C               	retlw	108	;'l'
  1219     05EC  346F               	retlw	111	;'o'
  1220     05ED  3467               	retlw	103	;'g'
  1221     05EE  3473               	retlw	115	;'s'
  1222     05EF  3420               	retlw	32	;' '
  1223     05F0  3470               	retlw	112	;'p'
  1224     05F1  3472               	retlw	114	;'r'
  1225     05F2  3465               	retlw	101	;'e'
  1226     05F3  3473               	retlw	115	;'s'
  1227     05F4  3465               	retlw	101	;'e'
  1228     05F5  346E               	retlw	110	;'n'
  1229     05F6  3474               	retlw	116	;'t'
  1230     05F7  3400               	retlw	0
  1231     05F8                     STR_28:
  1232     05F8  3450               	retlw	80	;'P'
  1233     05F9  3461               	retlw	97	;'a'
  1234     05FA  3473               	retlw	115	;'s'
  1235     05FB  3473               	retlw	115	;'s'
  1236     05FC  3457               	retlw	87	;'W'
  1237     05FD  3464               	retlw	100	;'d'
  1238     05FE  3420               	retlw	32	;' '
  1239     05FF  3463               	retlw	99	;'c'
  1240     0600  3468               	retlw	104	;'h'
  1241     0601  3461               	retlw	97	;'a'
  1242     0602  346E               	retlw	110	;'n'
  1243     0603  3467               	retlw	103	;'g'
  1244     0604  3465               	retlw	101	;'e'
  1245     0605  3420               	retlw	32	;' '
  1246     0606  3400               	retlw	0
  1247     0607                     STR_32:
  1248     0607  3463               	retlw	99	;'c'
  1249     0608  346C               	retlw	108	;'l'
  1250     0609  3465               	retlw	101	;'e'
  1251     060A  3461               	retlw	97	;'a'
  1252     060B  3472               	retlw	114	;'r'
  1253     060C  3465               	retlw	101	;'e'
  1254     060D  3464               	retlw	100	;'d'
  1255     060E  3420               	retlw	32	;' '
  1256     060F  346C               	retlw	108	;'l'
  1257     0610  346F               	retlw	111	;'o'
  1258     0611  3467               	retlw	103	;'g'
  1259     0612  3473               	retlw	115	;'s'
  1260     0613  342E               	retlw	46	;'.'
  1261     0614  342E               	retlw	46	;'.'
  1262     0615  3400               	retlw	0
  1263     0616                     STR_14:
  1264     0616  3443               	retlw	67	;'C'
  1265     0617  3468               	retlw	104	;'h'
  1266     0618  3461               	retlw	97	;'a'
  1267     0619  346E               	retlw	110	;'n'
  1268     061A  3467               	retlw	103	;'g'
  1269     061B  3465               	retlw	101	;'e'
  1270     061C  3420               	retlw	32	;' '
  1271     061D  3470               	retlw	112	;'p'
  1272     061E  3461               	retlw	97	;'a'
  1273     061F  3473               	retlw	115	;'s'
  1274     0620  3473               	retlw	115	;'s'
  1275     0621  3477               	retlw	119	;'w'
  1276     0622  3472               	retlw	114	;'r'
  1277     0623  3464               	retlw	100	;'d'
  1278     0624  3400               	retlw	0
  1279     0625                     STR_40:
  1280     0625  3444               	retlw	68	;'D'
  1281     0626  346F               	retlw	111	;'o'
  1282     0627  3477               	retlw	119	;'w'
  1283     0628  346E               	retlw	110	;'n'
  1284     0629  346C               	retlw	108	;'l'
  1285     062A  346F               	retlw	111	;'o'
  1286     062B  3461               	retlw	97	;'a'
  1287     062C  3464               	retlw	100	;'d'
  1288     062D  3465               	retlw	101	;'e'
  1289     062E  3464               	retlw	100	;'d'
  1290     062F  3420               	retlw	32	;' '
  1291     0630  346C               	retlw	108	;'l'
  1292     0631  346F               	retlw	111	;'o'
  1293     0632  3467               	retlw	103	;'g'
  1294     0633  3400               	retlw	0
  1295     0634                     STR_30:
  1296     0634  3450               	retlw	80	;'P'
  1297     0635  3461               	retlw	97	;'a'
  1298     0636  3473               	retlw	115	;'s'
  1299     0637  3473               	retlw	115	;'s'
  1300     0638  3457               	retlw	87	;'W'
  1301     0639  3464               	retlw	100	;'d'
  1302     063A  3420               	retlw	32	;' '
  1303     063B  3463               	retlw	99	;'c'
  1304     063C  3468               	retlw	104	;'h'
  1305     063D  3461               	retlw	97	;'a'
  1306     063E  346E               	retlw	110	;'n'
  1307     063F  3467               	retlw	103	;'g'
  1308     0640  3465               	retlw	101	;'e'
  1309     0641  3400               	retlw	0
  1310     0642                     STR_15:
  1311     0642  3444               	retlw	68	;'D'
  1312     0643  346F               	retlw	111	;'o'
  1313     0644  3477               	retlw	119	;'w'
  1314     0645  346E               	retlw	110	;'n'
  1315     0646  346C               	retlw	108	;'l'
  1316     0647  346F               	retlw	111	;'o'
  1317     0648  3461               	retlw	97	;'a'
  1318     0649  3464               	retlw	100	;'d'
  1319     064A  3420               	retlw	32	;' '
  1320     064B  346C               	retlw	108	;'l'
  1321     064C  346F               	retlw	111	;'o'
  1322     064D  3467               	retlw	103	;'g'
  1323     064E  3400               	retlw	0
  1324     064F                     STR_34:
  1325     064F  3453               	retlw	83	;'S'
  1326     0650  3455               	retlw	85	;'U'
  1327     0651  3443               	retlw	67	;'C'
  1328     0652  3443               	retlw	67	;'C'
  1329     0653  3445               	retlw	69	;'E'
  1330     0654  3453               	retlw	83	;'S'
  1331     0655  3453               	retlw	83	;'S'
  1332     0656  3446               	retlw	70	;'F'
  1333     0657  3455               	retlw	85	;'U'
  1334     0658  344C               	retlw	76	;'L'
  1335     0659  344C               	retlw	76	;'L'
  1336     065A  3400               	retlw	0
  1337     065B                     STR_29:
  1338     065B  3453               	retlw	83	;'S'
  1339     065C  3475               	retlw	117	;'u'
  1340     065D  3463               	retlw	99	;'c'
  1341     065E  3465               	retlw	101	;'e'
  1342     065F  3473               	retlw	115	;'s'
  1343     0660  3473               	retlw	115	;'s'
  1344     0661  3466               	retlw	102	;'f'
  1345     0662  3475               	retlw	117	;'u'
  1346     0663  346C               	retlw	108	;'l'
  1347     0664  3420               	retlw	32	;' '
  1348     0665  3400               	retlw	0
  1349     0666                     STR_13:
  1350     0666  3443               	retlw	67	;'C'
  1351     0667  346C               	retlw	108	;'l'
  1352     0668  3465               	retlw	101	;'e'
  1353     0669  3461               	retlw	97	;'a'
  1354     066A  3472               	retlw	114	;'r'
  1355     066B  3420               	retlw	32	;' '
  1356     066C  346C               	retlw	108	;'l'
  1357     066D  346F               	retlw	111	;'o'
  1358     066E  3467               	retlw	103	;'g'
  1359     066F  3400               	retlw	0
  1360     0670                     STR_16:
  1361     0670  3453               	retlw	83	;'S'
  1362     0671  3465               	retlw	101	;'e'
  1363     0672  3474               	retlw	116	;'t'
  1364     0673  3420               	retlw	32	;' '
  1365     0674  3474               	retlw	116	;'t'
  1366     0675  3469               	retlw	105	;'i'
  1367     0676  346D               	retlw	109	;'m'
  1368     0677  3465               	retlw	101	;'e'
  1369     0678  3400               	retlw	0
  1370     0679                     STR_12:
  1371     0679  3456               	retlw	86	;'V'
  1372     067A  3469               	retlw	105	;'i'
  1373     067B  3465               	retlw	101	;'e'
  1374     067C  3477               	retlw	119	;'w'
  1375     067D  3420               	retlw	32	;' '
  1376     067E  346C               	retlw	108	;'l'
  1377     067F  346F               	retlw	111	;'o'
  1378     0680  3467               	retlw	103	;'g'
  1379     0681  3400               	retlw	0
  1380     0682                     STR_31:
  1381     0682  3446               	retlw	70	;'F'
  1382     0683  3461               	retlw	97	;'a'
  1383     0684  3469               	retlw	105	;'i'
  1384     0685  346C               	retlw	108	;'l'
  1385     0686  3464               	retlw	100	;'d'
  1386     0687  3400               	retlw	0
  1387     0688                     STR_36:
  1388     0688  3420               	retlw	32	;' '
  1389     0689  3420               	retlw	32	;' '
  1390     068A  3400               	retlw	0
  1391     068B                     STR_8:
  1392     068B  3443               	retlw	67	;'C'
  1393     068C  3420               	retlw	32	;' '
  1394     068D  3400               	retlw	0
  1395     068E                     STR_3:
  1396     068E  3447               	retlw	71	;'G'
  1397     068F  3431               	retlw	49	;'1'
  1398     0690  3400               	retlw	0
  1399     0691                     STR_4:
  1400     0691  3447               	retlw	71	;'G'
  1401     0692  3432               	retlw	50	;'2'
  1402     0693  3400               	retlw	0
  1403     0694                     STR_5:
  1404     0694  3447               	retlw	71	;'G'
  1405     0695  3433               	retlw	51	;'3'
  1406     0696  3400               	retlw	0
  1407     0697                     STR_6:
  1408     0697  3447               	retlw	71	;'G'
  1409     0698  3434               	retlw	52	;'4'
  1410     0699  3400               	retlw	0
  1411     069A                     STR_11:
  1412     069A  3443               	retlw	67	;'C'
  1413     069B  344C               	retlw	76	;'L'
  1414     069C  3400               	retlw	0
  1415     069D                     STR_1:
  1416     069D  3447               	retlw	71	;'G'
  1417     069E  344E               	retlw	78	;'N'
  1418     069F  3400               	retlw	0
  1419     06A0                     STR_10:
  1420     06A0  3443               	retlw	67	;'C'
  1421     06A1  3450               	retlw	80	;'P'
  1422     06A2  3400               	retlw	0
  1423     06A3                     STR_2:
  1424     06A3  3447               	retlw	71	;'G'
  1425     06A4  3452               	retlw	82	;'R'
  1426     06A5  3400               	retlw	0
  1427     06A6                     STR_39:
  1428     06A6  340A               	retlw	10
  1429     06A7  3400               	retlw	0
  1430     0573                     STR_25          equ	STR_23
  1431     0574                     STR_17          equ	STR_23+1
  1432     0540                     STR_9           equ	STR_22+1
  1433     0688                     STR_37          equ	STR_36
  1434     0688                     STR_38          equ	STR_36
  1435                           
  1436                           	psect	cinit
  1437     000F                     start_initialization:	
  1438                           ; #config settings
  1439                           
  1440     000F                     __initialization:
  1441                           
  1442                           ; Initialize objects allocated to BANK3
  1443     000F  1783               	bsf	3,7	;select IRP bank2
  1444     0010  309C               	movlw	low (__pdataBANK3+12)
  1445     0011  00FD               	movwf	btemp+-1
  1446     0012  3004               	movlw	high __pidataBANK3
  1447     0013  00FE               	movwf	btemp
  1448     0014  30F4               	movlw	low __pidataBANK3
  1449     0015  00FF               	movwf	btemp+1
  1450     0016  3090               	movlw	low __pdataBANK3
  1451     0017  0084               	movwf	4
  1452     0018  160A  118A  2469  120A  118A  	fcall	init_ram0
  1453                           
  1454                           ; Initialize objects allocated to BANK1
  1455     001D  1383               	bcf	3,7	;select IRP bank0
  1456     001E  30E7               	movlw	low (__pdataBANK1+15)
  1457     001F  00FD               	movwf	btemp+-1
  1458     0020  3014               	movlw	high __pidataBANK1
  1459     0021  00FE               	movwf	btemp
  1460     0022  3031               	movlw	low __pidataBANK1
  1461     0023  00FF               	movwf	btemp+1
  1462     0024  30D8               	movlw	low __pdataBANK1
  1463     0025  0084               	movwf	4
  1464     0026  160A  118A  2469  120A  118A  	fcall	init_ram0
  1465                           
  1466                           ; Initialize objects allocated to BANK0
  1467     002B  306F               	movlw	low (__pdataBANK0+5)
  1468     002C  00FD               	movwf	btemp+-1
  1469     002D  3013               	movlw	high __pidataBANK0
  1470     002E  00FE               	movwf	btemp
  1471     002F  30BA               	movlw	low __pidataBANK0
  1472     0030  00FF               	movwf	btemp+1
  1473     0031  306A               	movlw	low __pdataBANK0
  1474     0032  0084               	movwf	4
  1475     0033  160A  118A  2469  120A  118A  	fcall	init_ram0
  1476                           
  1477                           ; Initialize objects allocated to COMMON
  1478     0038  120A  118A  2003  120A  118A  	fcall	__pidataCOMMON	;fetch initializer
  1479     003D  00FB               	movwf	__pdataCOMMON& (0+127)
  1480                           
  1481                           ; Clear objects allocated to BANK1
  1482     003E  30A0               	movlw	low __pbssBANK1
  1483     003F  0084               	movwf	4
  1484     0040  30D8               	movlw	low (__pbssBANK1+56)
  1485     0041  160A  118A  23C5  120A  118A  	fcall	clear_ram0
  1486                           
  1487                           ; Clear objects allocated to BANK0
  1488     0046  3049               	movlw	low __pbssBANK0
  1489     0047  0084               	movwf	4
  1490     0048  306A               	movlw	low (__pbssBANK0+33)
  1491     0049  160A  118A  23C5  120A  118A  	fcall	clear_ram0
  1492                           
  1493                           ; Clear objects allocated to COMMON
  1494     004E  01F9               	clrf	__pbssCOMMON& (0+127)
  1495     004F  01FA               	clrf	(__pbssCOMMON+1)& (0+127)
  1496     0050                     end_of_initialization:	
  1497                           ;End of C runtime variable initialization code
  1498                           
  1499     0050                     __end_of__initialization:
  1500     0050  0183               	clrf	3
  1501     0051  120A  118A  2ACF   	ljmp	_main	;jump to C main() function
  1502                           
  1503                           	psect	bssCOMMON
  1504     0079                     __pbssCOMMON:
  1505     0079                     _hold:
  1506     0079                     	ds	2
  1507                           
  1508                           	psect	dataCOMMON
  1509     007B                     __pdataCOMMON:
  1510     007B                     read_digital_keypad@once:
  1511     007B                     	ds	1
  1512                           
  1513                           	psect	bssBANK0
  1514     0049                     __pbssBANK0:
  1515     0049                     _clock_reg:
  1516     0049                     	ds	3
  1517     004C                     change_passwd@pos:
  1518     004C                     	ds	2
  1519     004E                     change_passwd@i:
  1520     004E                     	ds	2
  1521     0050                     _Donce:
  1522     0050                     	ds	2
  1523     0052                     set_time@edited:
  1524     0052                     	ds	1
  1525     0053                     set_time@field:
  1526     0053                     	ds	1
  1527     0054                     login_menu@pos:
  1528     0054                     	ds	1
  1529     0055                     login_menu@menu_pos:
  1530     0055                     	ds	1
  1531     0056                     login@attempt:
  1532     0056                     	ds	1
  1533     0057                     login@i:
  1534     0057                     	ds	1
  1535     0058                     _blink:
  1536     0058                     	ds	1
  1537     0059                     _sec:
  1538     0059                     	ds	1
  1539     005A                     _return_time:
  1540     005A                     	ds	1
  1541     005B                     _res:
  1542     005B                     	ds	1
  1543     005C                     _gr:
  1544     005C                     	ds	1
  1545     005D                     _time:
  1546     005D                     	ds	7
  1547     0064                     _potVal:
  1548     0064                     	ds	4
  1549     0068                     _next:
  1550     0068                     	ds	1
  1551     0069                     _loc:
  1552     0069                     	ds	1
  1553                           
  1554                           	psect	dataBANK0
  1555     006A                     __pdataBANK0:
  1556     006A                     _event_count:
  1557     006A                     	ds	2
  1558     006C                     _event:
  1559     006C                     	ds	3
  1560                           
  1561                           	psect	bssBANK1
  1562     00A0                     __pbssBANK1:
  1563     00A0                     view_log@logData:
  1564     00A0                     	ds	11
  1565     00AB                     isr@blinker:
  1566     00AB                     	ds	2
  1567     00AD                     isr@counter:
  1568     00AD                     	ds	2
  1569     00AF                     download_log@tempF:
  1570     00AF                     	ds	2
  1571     00B1                     _next2:
  1572     00B1                     	ds	2
  1573     00B3                     change_passwd@once:
  1574     00B3                     	ds	2
  1575     00B5                     change_passwd@sonce:
  1576     00B5                     	ds	2
  1577     00B7                     _once:
  1578     00B7                     	ds	2
  1579     00B9                     main@hold:
  1580     00B9                     	ds	2
  1581     00BB                     _pot_value:
  1582     00BB                     	ds	2
  1583     00BD                     _reset:
  1584     00BD                     	ds	2
  1585     00BF                     _log:
  1586     00BF                     	ds	11
  1587     00CA                     change_passwd@upass:
  1588     00CA                     	ds	9
  1589     00D3                     login@uPass:
  1590     00D3                     	ds	5
  1591                           
  1592                           	psect	dataBANK1
  1593     00D8                     __pdataBANK1:
  1594     00D8                     _menu:
  1595     00D8                     	ds	10
  1596     00E2                     _pass:
  1597     00E2                     	ds	5
  1598                           
  1599                           	psect	dataBANK3
  1600     0190                     __pdataBANK3:
  1601     0190                     _gear:
  1602     0190                     	ds	12
  1603                           
  1604                           	psect	inittext
  1605     1465                     init_fetch0:	
  1606                           ;	Called with low address in FSR and high address in W
  1607                           
  1608     1465  087E               	movf	btemp,w
  1609     1466  008A               	movwf	10
  1610     1467  087F               	movf	btemp+1,w
  1611     1468  0082               	movwf	2
  1612     1469                     init_ram0:	
  1613                           ;Called with:
  1614                           ;	high address of idata address in btemp 
  1615                           ;	low address of idata address in btemp+1 
  1616                           ;	low address of data in FSR
  1617                           ;	high address + 1 of data in btemp-1
  1618                           
  1619     1469  160A  118A  2465  160A  118A  	fcall	init_fetch0
  1620     146E  0080               	movwf	0
  1621     146F  0A84               	incf	4,f
  1622     1470  0804               	movf	4,w
  1623     1471  067D               	xorwf	btemp+-1,w
  1624     1472  1903               	btfsc	3,2
  1625     1473  3400               	retlw	0
  1626     1474  0AFF               	incf	btemp+1,f
  1627     1475  1903               	btfsc	3,2
  1628     1476  0AFE               	incf	btemp,f
  1629     1477  2C69               	goto	init_ram0
  1630                           
  1631                           	psect	clrtext
  1632     13C5                     clear_ram0:	
  1633                           ;	Called with FSR containing the base address, and
  1634                           ;	W with the last address+1
  1635                           
  1636     13C5  0064               	clrwdt	;clear the watchdog before getting into this loop
  1637     13C6                     clrloop0:
  1638     13C6  0180               	clrf	0	;clear RAM location pointed to by FSR
  1639     13C7  0A84               	incf	4,f	;increment pointer
  1640     13C8  0604               	xorwf	4,w	;XOR with final address
  1641     13C9  1903               	btfsc	3,2	;have we reached the end yet?
  1642     13CA  3400               	retlw	0	;all done for this memory range, return
  1643     13CB  0604               	xorwf	4,w	;XOR again to restore value
  1644     13CC  2BC6               	goto	clrloop0	;do the next byte
  1645                           
  1646                           	psect	cstackCOMMON
  1647     0070                     __pcstackCOMMON:
  1648     0070                     ?_init_clcd:
  1649     0070                     ?_init_adc:	
  1650                           ; 1 bytes @ 0x0
  1651                           
  1652     0070                     ?_init_ds1307:	
  1653                           ; 1 bytes @ 0x0
  1654                           
  1655     0070                     ?_init_digital_keypad:	
  1656                           ; 1 bytes @ 0x0
  1657                           
  1658     0070                     ?_init_timer0:	
  1659                           ; 1 bytes @ 0x0
  1660                           
  1661     0070                     ?_read_digital_keypad:	
  1662                           ; 1 bytes @ 0x0
  1663                           
  1664     0070                     ?_clear_screen:	
  1665                           ; 1 bytes @ 0x0
  1666                           
  1667     0070                     ?_login_menu:	
  1668                           ; 1 bytes @ 0x0
  1669                           
  1670     0070                     ?_view_log:	
  1671                           ; 1 bytes @ 0x0
  1672                           
  1673     0070                     ?_change_passwd:	
  1674                           ; 1 bytes @ 0x0
  1675                           
  1676     0070                     ?_clear_logs:	
  1677                           ; 1 bytes @ 0x0
  1678                           
  1679     0070                     ?_set_time:	
  1680                           ; 1 bytes @ 0x0
  1681                           
  1682     0070                     ?_download_log:	
  1683                           ; 1 bytes @ 0x0
  1684                           
  1685     0070                     ?_read_ds1307:	
  1686                           ; 1 bytes @ 0x0
  1687                           
  1688     0070                     ?_read_external_eeprom:	
  1689                           ; 1 bytes @ 0x0
  1690                           
  1691     0070                     ?_i2c_start:	
  1692                           ; 1 bytes @ 0x0
  1693                           
  1694     0070                     ?_i2c_stop:	
  1695                           ; 1 bytes @ 0x0
  1696                           
  1697     0070                     ?_config:	
  1698                           ; 1 bytes @ 0x0
  1699                           
  1700     0070                     ?_getPotVal:	
  1701                           ; 1 bytes @ 0x0
  1702                           
  1703     0070                     ?_main:	
  1704                           ; 1 bytes @ 0x0
  1705                           
  1706     0070                     ?_get_time:	
  1707                           ; 1 bytes @ 0x0
  1708                           
  1709     0070                     ?_display_time:	
  1710                           ; 1 bytes @ 0x0
  1711                           
  1712     0070                     ?_dec_to_bcd:	
  1713                           ; 1 bytes @ 0x0
  1714                           
  1715     0070                     ?_init_display_controller:	
  1716                           ; 1 bytes @ 0x0
  1717                           
  1718     0070                     ?_i2c_wait_for_idle:	
  1719                           ; 1 bytes @ 0x0
  1720                           
  1721     0070                     ?_i2c_rep_start:	
  1722                           ; 1 bytes @ 0x0
  1723                           
  1724     0070                     ?_i2c_read:	
  1725                           ; 1 bytes @ 0x0
  1726                           
  1727     0070                     ?_isr:	
  1728                           ; 1 bytes @ 0x0
  1729                           
  1730     0070                     ?_putchar:	
  1731                           ; 1 bytes @ 0x0
  1732                           
  1733     0070                     ?_i2c_write:	
  1734                           ; 1 bytes @ 0x0
  1735                           
  1736     0070                     ??_isr:	
  1737                           ; 2 bytes @ 0x0
  1738                           
  1739                           
  1740                           ; 1 bytes @ 0x0
  1741     0070                     	ds	2
  1742     0072                     ?_strcpy:
  1743     0072                     ?_clcd_write:	
  1744                           ; 1 bytes @ 0x2
  1745                           
  1746     0072                     ?_strncpy:	
  1747                           ; 1 bytes @ 0x2
  1748                           
  1749     0072                     ?___bmul:	
  1750                           ; 1 bytes @ 0x2
  1751                           
  1752     0072                     ?_read_adc:	
  1753                           ; 1 bytes @ 0x2
  1754                           
  1755     0072                     ?_strcmp:	
  1756                           ; 2 bytes @ 0x2
  1757                           
  1758     0072                     ?_strncmp:	
  1759                           ; 2 bytes @ 0x2
  1760                           
  1761     0072                     ?___wmul:	
  1762                           ; 2 bytes @ 0x2
  1763                           
  1764     0072                     ?___awdiv:	
  1765                           ; 2 bytes @ 0x2
  1766                           
  1767     0072                     ?___awmod:	
  1768                           ; 2 bytes @ 0x2
  1769                           
  1770     0072                     clcd_write@mode:	
  1771                           ; 2 bytes @ 0x2
  1772                           
  1773     0072                     i2c_read@ack:	
  1774                           ; 1 bytes @ 0x2
  1775                           
  1776     0072                     putchar@data:	
  1777                           ; 1 bytes @ 0x2
  1778                           
  1779     0072                     ___bmul@multiplicand:	
  1780                           ; 1 bytes @ 0x2
  1781                           
  1782     0072                     strcmp@l:	
  1783                           ; 1 bytes @ 0x2
  1784                           
  1785     0072                     strcpy@dest:	
  1786                           ; 1 bytes @ 0x2
  1787                           
  1788     0072                     strncmp@l:	
  1789                           ; 1 bytes @ 0x2
  1790                           
  1791     0072                     strncpy@d:	
  1792                           ; 1 bytes @ 0x2
  1793                           
  1794     0072                     ___wmul@multiplier:	
  1795                           ; 1 bytes @ 0x2
  1796                           
  1797     0072                     ___awdiv@divisor:	
  1798                           ; 2 bytes @ 0x2
  1799                           
  1800     0072                     ___awmod@divisor:	
  1801                           ; 2 bytes @ 0x2
  1802                           
  1803     0072                     ??_init_adc:	
  1804                           ; 2 bytes @ 0x2
  1805                           
  1806     0072                     ??_init_digital_keypad:	
  1807                           ; 1 bytes @ 0x2
  1808                           
  1809     0072                     ??_init_timer0:	
  1810                           ; 1 bytes @ 0x2
  1811                           
  1812     0072                     ??_read_digital_keypad:	
  1813                           ; 1 bytes @ 0x2
  1814                           
  1815     0072                     ??_i2c_start:	
  1816                           ; 1 bytes @ 0x2
  1817                           
  1818     0072                     ??_i2c_stop:	
  1819                           ; 1 bytes @ 0x2
  1820                           
  1821     0072                     ??_i2c_wait_for_idle:	
  1822                           ; 1 bytes @ 0x2
  1823                           
  1824     0072                     ??_i2c_rep_start:	
  1825                           ; 1 bytes @ 0x2
  1826                           
  1827     0072                     ??_i2c_read:	
  1828                           ; 1 bytes @ 0x2
  1829                           
  1830     0072                     ??_putchar:	
  1831                           ; 1 bytes @ 0x2
  1832                           
  1833     0072                     ??___lmul:	
  1834                           ; 1 bytes @ 0x2
  1835                           
  1836     0072                     ??___lldiv:	
  1837                           ; 1 bytes @ 0x2
  1838                           
  1839                           
  1840                           ; 1 bytes @ 0x2
  1841     0072                     	ds	1
  1842     0073                     ?_puts:
  1843     0073                     i2c_read@data:	
  1844                           ; 1 bytes @ 0x3
  1845                           
  1846     0073                     read_digital_keypad@mode:	
  1847                           ; 1 bytes @ 0x3
  1848                           
  1849     0073                     ___bmul@product:	
  1850                           ; 1 bytes @ 0x3
  1851                           
  1852     0073                     strcmp@r:	
  1853                           ; 1 bytes @ 0x3
  1854                           
  1855     0073                     strncmp@r:	
  1856                           ; 1 bytes @ 0x3
  1857                           
  1858     0073                     puts@s:	
  1859                           ; 1 bytes @ 0x3
  1860                           
  1861     0073                     strcpy@src:	
  1862                           ; 2 bytes @ 0x3
  1863                           
  1864     0073                     strncpy@s:	
  1865                           ; 2 bytes @ 0x3
  1866                           
  1867     0073                     ___lmul@product:	
  1868                           ; 2 bytes @ 0x3
  1869                           
  1870     0073                     ___lldiv@quotient:	
  1871                           ; 4 bytes @ 0x3
  1872                           
  1873     0073                     ??_clcd_write:	
  1874                           ; 4 bytes @ 0x3
  1875                           
  1876     0073                     ??___bmul:	
  1877                           ; 1 bytes @ 0x3
  1878                           
  1879                           
  1880                           ; 1 bytes @ 0x3
  1881     0073                     	ds	1
  1882     0074                     ___bmul@multiplier:
  1883     0074                     read_adc@adc_reg_val:	
  1884                           ; 1 bytes @ 0x4
  1885                           
  1886     0074                     ___wmul@multiplicand:	
  1887                           ; 2 bytes @ 0x4
  1888                           
  1889     0074                     ___awdiv@dividend:	
  1890                           ; 2 bytes @ 0x4
  1891                           
  1892     0074                     ___awmod@dividend:	
  1893                           ; 2 bytes @ 0x4
  1894                           
  1895     0074                     strncmp@n:	
  1896                           ; 2 bytes @ 0x4
  1897                           
  1898     0074                     ??_read_adc:	
  1899                           ; 2 bytes @ 0x4
  1900                           
  1901     0074                     ??_strcmp:	
  1902                           ; 1 bytes @ 0x4
  1903                           
  1904                           
  1905                           ; 1 bytes @ 0x4
  1906     0074                     	ds	1
  1907     0075                     clcd_write@byte:
  1908     0075                     strncpy@n:	
  1909                           ; 1 bytes @ 0x5
  1910                           
  1911     0075                     ??_puts:	
  1912                           ; 2 bytes @ 0x5
  1913                           
  1914     0075                     ??_strcpy:	
  1915                           ; 1 bytes @ 0x5
  1916                           
  1917                           
  1918                           ; 1 bytes @ 0x5
  1919     0075                     	ds	1
  1920     0076                     ___awmod@counter:
  1921     0076                     ___wmul@product:	
  1922                           ; 1 bytes @ 0x6
  1923                           
  1924     0076                     ??_clear_screen:	
  1925                           ; 2 bytes @ 0x6
  1926                           
  1927     0076                     ??_clcd_print:	
  1928                           ; 1 bytes @ 0x6
  1929                           
  1930     0076                     ??_clear_logs:	
  1931                           ; 1 bytes @ 0x6
  1932                           
  1933     0076                     ??_strncmp:	
  1934                           ; 1 bytes @ 0x6
  1935                           
  1936     0076                     ??_init_display_controller:	
  1937                           ; 1 bytes @ 0x6
  1938                           
  1939     0076                     ??___wmul:	
  1940                           ; 1 bytes @ 0x6
  1941                           
  1942     0076                     ??___awdiv:	
  1943                           ; 1 bytes @ 0x6
  1944                           
  1945     0076                     ??___awmod:	
  1946                           ; 1 bytes @ 0x6
  1947                           
  1948                           
  1949                           ; 1 bytes @ 0x6
  1950     0076                     	ds	1
  1951     0077                     ___lldiv@counter:
  1952     0077                     ___awmod@sign:	
  1953                           ; 1 bytes @ 0x7
  1954                           
  1955     0077                     strcpy@d:	
  1956                           ; 1 bytes @ 0x7
  1957                           
  1958     0077                     ??_strncpy:	
  1959                           ; 1 bytes @ 0x7
  1960                           
  1961                           
  1962                           ; 1 bytes @ 0x7
  1963     0077                     	ds	1
  1964     0078                     ?_clcd_putch:
  1965     0078                     dec_to_bcd@val:	
  1966                           ; 1 bytes @ 0x8
  1967                           
  1968     0078                     clcd_putch@addr:	
  1969                           ; 1 bytes @ 0x8
  1970                           
  1971     0078                     ??_init_clcd:	
  1972                           ; 1 bytes @ 0x8
  1973                           
  1974                           
  1975                           ; 1 bytes @ 0x8
  1976     0078                     	ds	1
  1977     0079                     ??_init_ds1307:
  1978     0079                     ??_log_car_event:	
  1979                           ; 1 bytes @ 0x9
  1980                           
  1981     0079                     ??_disp_dashboard:	
  1982                           ; 1 bytes @ 0x9
  1983                           
  1984     0079                     ??_view_log:	
  1985                           ; 1 bytes @ 0x9
  1986                           
  1987     0079                     ??_download_log:	
  1988                           ; 1 bytes @ 0x9
  1989                           
  1990     0079                     ??_read_ds1307:	
  1991                           ; 1 bytes @ 0x9
  1992                           
  1993     0079                     ??_clcd_putch:	
  1994                           ; 1 bytes @ 0x9
  1995                           
  1996     0079                     ??_read_external_eeprom:	
  1997                           ; 1 bytes @ 0x9
  1998                           
  1999     0079                     ??_ext_eeprom_store_str:	
  2000                           ; 1 bytes @ 0x9
  2001                           
  2002     0079                     ??_i2c_write:	
  2003                           ; 1 bytes @ 0x9
  2004                           
  2005     0079                     ??_write_ds1307:	
  2006                           ; 1 bytes @ 0x9
  2007                           
  2008     0079                     ??_config:	
  2009                           ; 1 bytes @ 0x9
  2010                           
  2011     0079                     ??_display_time:	
  2012                           ; 1 bytes @ 0x9
  2013                           
  2014     0079                     ??_write_external_eeprom:	
  2015                           ; 1 bytes @ 0x9
  2016                           
  2017                           
  2018                           	psect	cstackBANK0
  2019     0020                     __pcstackBANK0:	
  2020                           ; 1 bytes @ 0x9
  2021                           
  2022     0020                     ?_clcd_print:
  2023     0020                     ?___lmul:	
  2024                           ; 1 bytes @ 0x0
  2025                           
  2026     0020                     ?___lldiv:	
  2027                           ; 4 bytes @ 0x0
  2028                           
  2029     0020                     ___awdiv@counter:	
  2030                           ; 4 bytes @ 0x0
  2031                           
  2032     0020                     strncpy@cp:	
  2033                           ; 1 bytes @ 0x0
  2034                           
  2035     0020                     clcd_print@str:	
  2036                           ; 1 bytes @ 0x0
  2037                           
  2038     0020                     ___lmul@multiplier:	
  2039                           ; 2 bytes @ 0x0
  2040                           
  2041     0020                     ___lldiv@divisor:	
  2042                           ; 4 bytes @ 0x0
  2043                           
  2044                           
  2045                           ; 4 bytes @ 0x0
  2046     0020                     	ds	1
  2047     0021                     ___awdiv@sign:
  2048                           
  2049                           ; 1 bytes @ 0x1
  2050     0021                     	ds	1
  2051     0022                     clcd_print@addr:
  2052     0022                     ___awdiv@quotient:	
  2053                           ; 1 bytes @ 0x2
  2054                           
  2055                           
  2056                           ; 2 bytes @ 0x2
  2057     0022                     	ds	2
  2058     0024                     clcd_putch@data:
  2059     0024                     ___lmul@multiplicand:	
  2060                           ; 1 bytes @ 0x4
  2061                           
  2062     0024                     ___lldiv@dividend:	
  2063                           ; 4 bytes @ 0x4
  2064                           
  2065     0024                     ??_dec_to_bcd:	
  2066                           ; 4 bytes @ 0x4
  2067                           
  2068                           
  2069                           ; 1 bytes @ 0x4
  2070     0024                     	ds	1
  2071     0025                     ?_login:
  2072     0025                     login@reset_flag:	
  2073                           ; 1 bytes @ 0x5
  2074                           
  2075     0025                     ??_login_menu:	
  2076                           ; 1 bytes @ 0x5
  2077                           
  2078     0025                     ??_change_passwd:	
  2079                           ; 1 bytes @ 0x5
  2080                           
  2081                           
  2082                           ; 1 bytes @ 0x5
  2083     0025                     	ds	1
  2084     0026                     ??_login:
  2085                           
  2086                           ; 1 bytes @ 0x6
  2087     0026                     	ds	1
  2088     0027                     _login_menu$282:
  2089                           
  2090                           ; 2 bytes @ 0x7
  2091     0027                     	ds	1
  2092     0028                     ?_init_i2c:
  2093     0028                     ?_init_uart:	
  2094                           ; 1 bytes @ 0x8
  2095                           
  2096     0028                     change_passwd@key:	
  2097                           ; 1 bytes @ 0x8
  2098                           
  2099     0028                     init_i2c@baud:	
  2100                           ; 1 bytes @ 0x8
  2101                           
  2102     0028                     init_uart@baud:	
  2103                           ; 4 bytes @ 0x8
  2104                           
  2105     0028                     ??_getPotVal:	
  2106                           ; 4 bytes @ 0x8
  2107                           
  2108                           
  2109                           ; 1 bytes @ 0x8
  2110     0028                     	ds	1
  2111     0029                     login@key:
  2112     0029                     _login_menu$283:	
  2113                           ; 1 bytes @ 0x9
  2114                           
  2115                           
  2116                           ; 2 bytes @ 0x9
  2117     0029                     	ds	1
  2118     002A                     login@k:
  2119     002A                     getPotVal@temp:	
  2120                           ; 2 bytes @ 0xA
  2121                           
  2122                           
  2123                           ; 4 bytes @ 0xA
  2124     002A                     	ds	1
  2125     002B                     login_menu@key:
  2126     002B                     i2c_write@data:	
  2127                           ; 1 bytes @ 0xB
  2128                           
  2129                           
  2130                           ; 1 bytes @ 0xB
  2131     002B                     	ds	1
  2132     002C                     ?_write_ds1307:
  2133     002C                     ?_write_external_eeprom:	
  2134                           ; 1 bytes @ 0xC
  2135                           
  2136     002C                     read_ds1307@addr:	
  2137                           ; 1 bytes @ 0xC
  2138                           
  2139     002C                     write_ds1307@data:	
  2140                           ; 1 bytes @ 0xC
  2141                           
  2142     002C                     write_external_eeprom@data:	
  2143                           ; 1 bytes @ 0xC
  2144                           
  2145     002C                     read_external_eeprom@address:	
  2146                           ; 1 bytes @ 0xC
  2147                           
  2148     002C                     ??_init_i2c:	
  2149                           ; 1 bytes @ 0xC
  2150                           
  2151     002C                     ??_init_uart:	
  2152                           ; 1 bytes @ 0xC
  2153                           
  2154     002C                     ??_set_time:	
  2155                           ; 1 bytes @ 0xC
  2156                           
  2157                           
  2158                           ; 1 bytes @ 0xC
  2159     002C                     	ds	1
  2160     002D                     read_ds1307@data:
  2161     002D                     write_ds1307@addr:	
  2162                           ; 1 bytes @ 0xD
  2163                           
  2164     002D                     read_external_eeprom@data:	
  2165                           ; 1 bytes @ 0xD
  2166                           
  2167     002D                     write_external_eeprom@wait:	
  2168                           ; 1 bytes @ 0xD
  2169                           
  2170                           
  2171                           ; 2 bytes @ 0xD
  2172     002D                     	ds	1
  2173     002E                     getPotVal@new_mapped_value:
  2174     002E                     view_log@add:	
  2175                           ; 1 bytes @ 0xE
  2176                           
  2177     002E                     init_ds1307@dummy:	
  2178                           ; 1 bytes @ 0xE
  2179                           
  2180     002E                     download_log@logData:	
  2181                           ; 1 bytes @ 0xE
  2182                           
  2183     002E                     ??_get_time:	
  2184                           ; 11 bytes @ 0xE
  2185                           
  2186                           
  2187                           ; 1 bytes @ 0xE
  2188     002E                     	ds	1
  2189     002F                     ?_disp_dashboard:
  2190     002F                     disp_dashboard@event:	
  2191                           ; 1 bytes @ 0xF
  2192                           
  2193     002F                     view_log@key:	
  2194                           ; 1 bytes @ 0xF
  2195                           
  2196     002F                     write_external_eeprom@address:	
  2197                           ; 1 bytes @ 0xF
  2198                           
  2199                           
  2200                           ; 1 bytes @ 0xF
  2201     002F                     	ds	1
  2202     0030                     ?_ext_eeprom_store_str:
  2203     0030                     set_time@key:	
  2204                           ; 1 bytes @ 0x10
  2205                           
  2206     0030                     ext_eeprom_store_str@str:	
  2207                           ; 1 bytes @ 0x10
  2208                           
  2209     0030                     view_log@i:	
  2210                           ; 1 bytes @ 0x10
  2211                           
  2212                           
  2213                           ; 2 bytes @ 0x10
  2214     0030                     	ds	1
  2215     0031                     ext_eeprom_store_str@address:
  2216     0031                     set_time@hh:	
  2217                           ; 1 bytes @ 0x11
  2218                           
  2219                           
  2220                           ; 3 bytes @ 0x11
  2221     0031                     	ds	1
  2222     0032                     ?_log_car_event:
  2223     0032                     log_car_event@event:	
  2224                           ; 1 bytes @ 0x12
  2225                           
  2226                           
  2227                           ; 2 bytes @ 0x12
  2228     0032                     	ds	2
  2229     0034                     log_car_event@speed:
  2230     0034                     set_time@mm:	
  2231                           ; 1 bytes @ 0x14
  2232                           
  2233                           
  2234                           ; 3 bytes @ 0x14
  2235     0034                     	ds	1
  2236     0035                     log_car_event@add:
  2237                           
  2238                           ; 1 bytes @ 0x15
  2239     0035                     	ds	2
  2240     0037                     set_time@ss:
  2241                           
  2242                           ; 3 bytes @ 0x17
  2243     0037                     	ds	2
  2244     0039                     download_log@add:
  2245                           
  2246                           ; 1 bytes @ 0x19
  2247     0039                     	ds	1
  2248     003A                     set_time@hour:
  2249     003A                     download_log@i:	
  2250                           ; 2 bytes @ 0x1A
  2251                           
  2252                           
  2253                           ; 2 bytes @ 0x1A
  2254     003A                     	ds	2
  2255     003C                     set_time@min:
  2256                           
  2257                           ; 2 bytes @ 0x1C
  2258     003C                     	ds	2
  2259     003E                     set_time@sec:
  2260                           
  2261                           ; 2 bytes @ 0x1E
  2262     003E                     	ds	2
  2263     0040                     ??_main:
  2264                           
  2265                           ; 1 bytes @ 0x20
  2266     0040                     	ds	2
  2267     0042                     main@j:
  2268                           
  2269                           ; 2 bytes @ 0x22
  2270     0042                     	ds	2
  2271     0044                     main@k2:
  2272                           
  2273                           ; 1 bytes @ 0x24
  2274     0044                     	ds	1
  2275     0045                     main@menu_pos:
  2276                           
  2277                           ; 1 bytes @ 0x25
  2278     0045                     	ds	1
  2279     0046                     main@reset_flag:
  2280                           
  2281                           ; 1 bytes @ 0x26
  2282     0046                     	ds	1
  2283     0047                     main@control_flag:
  2284                           
  2285                           ; 1 bytes @ 0x27
  2286     0047                     	ds	1
  2287     0048                     main@key:
  2288                           
  2289                           ; 1 bytes @ 0x28
  2290     0048                     	ds	1
  2291                           
  2292                           	psect	maintext
  2293     02CF                     __pmaintext:	
  2294 ;;
  2295 ;;Main: autosize = 0, tempsize = 2, incstack = 0, save=0
  2296 ;;
  2297 ;; *************** function _main *****************
  2298 ;; Defined at:
  2299 ;;		line 46 in file "main.c"
  2300 ;; Parameters:    Size  Location     Type
  2301 ;;		None
  2302 ;; Auto vars:     Size  Location     Type
  2303 ;;  j               2   34[BANK0 ] int 
  2304 ;;  key             1   40[BANK0 ] unsigned char 
  2305 ;;  control_flag    1   39[BANK0 ] unsigned char 
  2306 ;;  reset_flag      1   38[BANK0 ] unsigned char 
  2307 ;;  menu_pos        1   37[BANK0 ] unsigned char 
  2308 ;;  k2              1   36[BANK0 ] unsigned char 
  2309 ;; Return value:  Size  Location     Type
  2310 ;;                  1    wreg      void 
  2311 ;; Registers used:
  2312 ;;		wreg, fsr0l, fsr0h, status,2, status,0, pclath, btemp1, cstack
  2313 ;; Tracked objects:
  2314 ;;		On entry : B00/0
  2315 ;;		On exit  : 0/0
  2316 ;;		Unchanged: 0/0
  2317 ;; Data sizes:     COMMON   BANK0   BANK1   BANK3   BANK2
  2318 ;;      Params:         0       0       0       0       0
  2319 ;;      Locals:         0       7       0       0       0
  2320 ;;      Temps:          0       2       0       0       0
  2321 ;;      Totals:         0       9       0       0       0
  2322 ;;Total ram usage:        9 bytes
  2323 ;; Hardware stack levels required when called: 7
  2324 ;; This function calls:
  2325 ;;		_change_passwd
  2326 ;;		_clcd_print
  2327 ;;		_clcd_write
  2328 ;;		_clear_logs
  2329 ;;		_clear_screen
  2330 ;;		_config
  2331 ;;		_disp_dashboard
  2332 ;;		_download_log
  2333 ;;		_log_car_event
  2334 ;;		_login
  2335 ;;		_login_menu
  2336 ;;		_read_digital_keypad
  2337 ;;		_set_time
  2338 ;;		_strcpy
  2339 ;;		_view_log
  2340 ;; This function is called by:
  2341 ;;		Startup code after reset
  2342 ;; This function uses a non-reentrant model
  2343 ;;
  2344                           
  2345     02CF                     _main:	
  2346                           ;psect for function _main
  2347                           
  2348     02CF                     l4170:	
  2349                           ;incstack = 0
  2350                           ; Regs used in _main: [wreg-fsr0h+status,2+status,0+pclath+btemp1+cstack]
  2351                           
  2352                           
  2353                           ;main.c: 47:          for(int j=3000;j--;);
  2354     02CF  160A  118A  2779  120A  118A  	fcall	_config
  2355     02D4                     l4172:
  2356                           
  2357                           ;main.c: 49:          k2=read_digital_keypad(0);
  2358     02D4  3001               	movlw	1
  2359     02D5  1283               	bcf	3,5	;RP0=0, select bank0
  2360     02D6  1303               	bcf	3,6	;RP1=0, select bank0
  2361     02D7  00C7               	movwf	main@control_flag
  2362     02D8                     l4174:
  2363                           
  2364                           ;main.c: 50: 
  2365     02D8  3008               	movlw	8
  2366     02D9  00C6               	movwf	main@reset_flag
  2367     02DA                     l4176:
  2368                           
  2369                           ;main.c: 51:          if(k2==0x2F && control_flag!=0x01){;main.c: 52: 
  2370     02DA  01C5               	clrf	main@menu_pos
  2371     02DB                     l4178:
  2372                           
  2373                           ;main.c: 59: 
  2374     02DB  3001               	movlw	1
  2375     02DC  160A  118A  25B7  120A  118A  	fcall	_read_digital_keypad
  2376     02E1  1283               	bcf	3,5	;RP0=0, select bank0
  2377     02E2  1303               	bcf	3,6	;RP1=0, select bank0
  2378     02E3  00C8               	movwf	main@key
  2379     02E4                     l4180:
  2380                           
  2381                           ;main.c: 60:              }
  2382     02E4  30B8               	movlw	184
  2383     02E5  00C2               	movwf	main@j
  2384     02E6  300B               	movlw	11
  2385     02E7  00C3               	movwf	main@j+1
  2386     02E8                     l4182:
  2387     02E8  30FF               	movlw	255
  2388     02E9  07C2               	addwf	main@j,f
  2389     02EA  1803               	skipnc
  2390     02EB  0AC3               	incf	main@j+1,f
  2391     02EC  30FF               	movlw	255
  2392     02ED  07C3               	addwf	main@j+1,f
  2393     02EE  0A42               	incf	main@j,w
  2394     02EF  1D03               	skipz
  2395     02F0  2AF5               	goto	u3831
  2396     02F1  0A43               	incf	main@j+1,w
  2397     02F2  1D03               	btfss	3,2
  2398     02F3  2AF5               	goto	u3831
  2399     02F4  2AF6               	goto	u3830
  2400     02F5                     u3831:
  2401     02F5  2AE8               	goto	l4182
  2402     02F6                     u3830:
  2403     02F6                     l4184:
  2404                           
  2405                           ;main.c: 62:          else{
  2406     02F6  3000               	movlw	0
  2407     02F7  160A  118A  25B7  120A  118A  	fcall	_read_digital_keypad
  2408     02FC  1283               	bcf	3,5	;RP0=0, select bank0
  2409     02FD  1303               	bcf	3,6	;RP1=0, select bank0
  2410     02FE  00C4               	movwf	main@k2
  2411     02FF                     l4186:
  2412                           
  2413                           ;main.c: 64:                TMR0IE=0;
  2414     02FF  302F               	movlw	47
  2415     0300  0644               	xorwf	main@k2,w
  2416     0301  1D03               	btfss	3,2
  2417     0302  2B04               	goto	u3841
  2418     0303  2B05               	goto	u3840
  2419     0304                     u3841:
  2420     0304  2B1D               	goto	l4198
  2421     0305                     u3840:
  2422     0305                     l4188:
  2423     0305  0347               	decf	main@control_flag,w
  2424     0306  1903               	btfsc	3,2
  2425     0307  2B09               	goto	u3851
  2426     0308  2B0A               	goto	u3850
  2427     0309                     u3851:
  2428     0309  2B1D               	goto	l4198
  2429     030A                     u3850:
  2430     030A                     l4190:
  2431                           
  2432                           ;main.c: 66: 
  2433     030A  168B               	bsf	11,5	;volatile
  2434     030B                     l4192:
  2435                           
  2436                           ;main.c: 68: 
  2437     030B  1683               	bsf	3,5	;RP0=1, select bank1
  2438     030C  1303               	bcf	3,6	;RP1=0, select bank1
  2439     030D  083D               	movf	_reset^(0+128),w
  2440     030E  043E               	iorwf	(_reset+1)^(0+128),w
  2441     030F  1903               	btfsc	3,2
  2442     0310  2B12               	goto	u3861
  2443     0311  2B13               	goto	u3860
  2444     0312                     u3861:
  2445     0312  2B22               	goto	l4202
  2446     0313                     u3860:
  2447     0313                     l4194:
  2448                           
  2449                           ;main.c: 69:          if(key==0x3E){
  2450     0313  160A  118A  240A  120A  118A  	fcall	_clear_screen
  2451     0318                     l4196:
  2452                           
  2453                           ;main.c: 70:              strcpy(event,"C ");
  2454     0318  3001               	movlw	1
  2455     0319  1283               	bcf	3,5	;RP0=0, select bank0
  2456     031A  1303               	bcf	3,6	;RP1=0, select bank0
  2457     031B  00C7               	movwf	main@control_flag
  2458     031C  2B22               	goto	l4202
  2459     031D                     l4198:
  2460                           
  2461                           ;main.c: 76:             strcpy(event, gear[gr]);
  2462     031D  1683               	bsf	3,5	;RP0=1, select bank1
  2463     031E  1303               	bcf	3,6	;RP1=0, select bank1
  2464     031F  01BD               	clrf	_reset^(0+128)
  2465     0320  01BE               	clrf	(_reset+1)^(0+128)
  2466     0321                     l4200:
  2467                           
  2468                           ;main.c: 77:             log_car_event(event,potVal);
  2469     0321  128B               	bcf	11,5	;volatile
  2470     0322                     l4202:
  2471                           
  2472                           ;main.c: 82:             gr--;
  2473     0322  303E               	movlw	62
  2474     0323  1283               	bcf	3,5	;RP0=0, select bank0
  2475     0324  0648               	xorwf	main@key,w
  2476     0325  1D03               	btfss	3,2
  2477     0326  2B28               	goto	u3871
  2478     0327  2B29               	goto	u3870
  2479     0328                     u3871:
  2480     0328  2B42               	goto	l4206
  2481     0329                     u3870:
  2482     0329                     l4204:
  2483                           
  2484                           ;main.c: 83:             strcpy(event,gear[gr]);
  2485     0329  306C               	movlw	(low (_event| 0))& (0+255)
  2486     032A  00F2               	movwf	strcpy@dest
  2487     032B  308B               	movlw	low (STR_8| (0+32768))
  2488     032C  00F3               	movwf	strcpy@src
  2489     032D  3086               	movlw	high (STR_8| (0+32768))
  2490     032E  00F4               	movwf	strcpy@src+1
  2491     032F  160A  118A  24FF  120A  118A  	fcall	_strcpy
  2492                           
  2493                           ;main.c: 84:             log_car_event(event,potVal);
  2494     0334  306C               	movlw	(low (_event| 0))& (0+255)
  2495     0335  1283               	bcf	3,5	;RP0=0, select bank0
  2496     0336  1303               	bcf	3,6	;RP1=0, select bank0
  2497     0337  00B2               	movwf	log_car_event@event
  2498     0338  3000               	movlw	0
  2499     0339  00B3               	movwf	log_car_event@event+1
  2500     033A  3064               	movlw	(low (_potVal| 0))& (0+255)
  2501     033B  00B4               	movwf	log_car_event@speed
  2502     033C  120A  158A  2354  120A  118A  	fcall	_log_car_event
  2503                           
  2504                           ;main.c: 86:         }
  2505     0341  2CD5               	goto	l4336
  2506     0342                     l4206:
  2507     0342  303D               	movlw	61
  2508     0343  0648               	xorwf	main@key,w
  2509     0344  1D03               	btfss	3,2
  2510     0345  2B47               	goto	u3881
  2511     0346  2B48               	goto	u3880
  2512     0347                     u3881:
  2513     0347  2B71               	goto	l4216
  2514     0348                     u3880:
  2515     0348                     l4208:
  2516     0348  3005               	movlw	5
  2517     0349  025C               	subwf	_gr,w
  2518     034A  1803               	skipnc
  2519     034B  2B4D               	goto	u3891
  2520     034C  2B4E               	goto	u3890
  2521     034D                     u3891:
  2522     034D  2B71               	goto	l4216
  2523     034E                     u3890:
  2524     034E                     l4210:
  2525                           
  2526                           ;main.c: 88:         clear_screen();
  2527     034E  3001               	movlw	1
  2528     034F  07DC               	addwf	_gr,f
  2529     0350                     l4212:
  2530                           
  2531                           ;main.c: 89:             clcd_print("ENTER  PASSWORD ",(0x80 + 0));
  2532     0350  306C               	movlw	(low (_event| 0))& (0+255)
  2533     0351  00F2               	movwf	strcpy@dest
  2534     0352  085C               	movf	_gr,w
  2535     0353  00C0               	movwf	??_main
  2536     0354  0740               	addwf	??_main,w
  2537     0355  3E90               	addlw	(low (_gear| (0+256)))& (0+255)
  2538     0356  0084               	movwf	4
  2539     0357  1783               	bsf	3,7	;select IRP bank3
  2540     0358  0800               	movf	0,w
  2541     0359  00F3               	movwf	strcpy@src
  2542     035A  0A84               	incf	4,f
  2543     035B  0800               	movf	0,w
  2544     035C  0384               	decf	4,f
  2545     035D  00F4               	movwf	strcpy@src+1
  2546     035E  160A  118A  24FF  120A  118A  	fcall	_strcpy
  2547     0363                     l4214:
  2548                           
  2549                           ;main.c: 90:             clcd_write(0xC6, 0);
  2550     0363  306C               	movlw	(low (_event| 0))& (0+255)
  2551     0364  1283               	bcf	3,5	;RP0=0, select bank0
  2552     0365  1303               	bcf	3,6	;RP1=0, select bank0
  2553     0366  00B2               	movwf	log_car_event@event
  2554     0367  3000               	movlw	0
  2555     0368  00B3               	movwf	log_car_event@event+1
  2556     0369  3064               	movlw	(low (_potVal| 0))& (0+255)
  2557     036A  00B4               	movwf	log_car_event@speed
  2558     036B  120A  158A  2354  120A  118A  	fcall	_log_car_event
  2559                           
  2560                           ;main.c: 92:             _delay((unsigned long)((100)*(20000000/4000000.0)));
  2561     0370  2CD5               	goto	l4336
  2562     0371                     l4216:
  2563     0371  303B               	movlw	59
  2564     0372  0648               	xorwf	main@key,w
  2565     0373  1D03               	btfss	3,2
  2566     0374  2B76               	goto	u3901
  2567     0375  2B77               	goto	u3900
  2568     0376                     u3901:
  2569     0376  2B92               	goto	l4226
  2570     0377                     u3900:
  2571     0377                     l4218:
  2572     0377  085C               	movf	_gr,w
  2573     0378  1903               	btfsc	3,2
  2574     0379  2B7B               	goto	u3911
  2575     037A  2B7C               	goto	u3910
  2576     037B                     u3911:
  2577     037B  2B92               	goto	l4226
  2578     037C                     u3910:
  2579     037C                     l4220:
  2580                           
  2581                           ;main.c: 94:             reset_flag=0x00;;main.c: 95: 
  2582     037C  3001               	movlw	1
  2583     037D  02DC               	subwf	_gr,f
  2584     037E                     l4222:
  2585                           
  2586                           ;main.c: 96:         }
  2587     037E  306C               	movlw	(low (_event| 0))& (0+255)
  2588     037F  00F2               	movwf	strcpy@dest
  2589     0380  085C               	movf	_gr,w
  2590     0381  00C0               	movwf	??_main
  2591     0382  0740               	addwf	??_main,w
  2592     0383  3E90               	addlw	(low (_gear| (0+256)))& (0+255)
  2593     0384  0084               	movwf	4
  2594     0385  1783               	bsf	3,7	;select IRP bank3
  2595     0386  0800               	movf	0,w
  2596     0387  00F3               	movwf	strcpy@src
  2597     0388  0A84               	incf	4,f
  2598     0389  0800               	movf	0,w
  2599     038A  0384               	decf	4,f
  2600     038B  00F4               	movwf	strcpy@src+1
  2601     038C  160A  118A  24FF  120A  118A  	fcall	_strcpy
  2602     0391  2B63               	goto	l4214
  2603     0392                     l4226:
  2604     0392  0347               	decf	main@control_flag,w
  2605     0393  1D03               	btfss	3,2
  2606     0394  2B96               	goto	u3921
  2607     0395  2B97               	goto	u3920
  2608     0396                     u3921:
  2609     0396  2BD6               	goto	l4248
  2610     0397                     u3920:
  2611     0397                     l4228:
  2612     0397  3037               	movlw	55
  2613     0398  0648               	xorwf	main@key,w
  2614     0399  1903               	btfsc	3,2
  2615     039A  2B9C               	goto	u3931
  2616     039B  2B9D               	goto	u3930
  2617     039C                     u3931:
  2618     039C  2BA3               	goto	l4232
  2619     039D                     u3930:
  2620     039D                     l4230:
  2621     039D  302F               	movlw	47
  2622     039E  0648               	xorwf	main@key,w
  2623     039F  1D03               	btfss	3,2
  2624     03A0  2BA2               	goto	u3941
  2625     03A1  2BA3               	goto	u3940
  2626     03A2                     u3941:
  2627     03A2  2BD6               	goto	l4248
  2628     03A3                     u3940:
  2629     03A3                     l4232:
  2630     03A3  3002               	movlw	2
  2631     03A4  0647               	xorwf	main@control_flag,w
  2632     03A5  1903               	btfsc	3,2
  2633     03A6  2BA8               	goto	u3951
  2634     03A7  2BA9               	goto	u3950
  2635     03A8                     u3951:
  2636     03A8  2BD6               	goto	l4248
  2637     03A9                     u3950:
  2638     03A9                     l4234:
  2639                           
  2640                           ;main.c: 101:                     clear_screen();
  2641     03A9  160A  118A  240A  120A  118A  	fcall	_clear_screen
  2642     03AE                     l4236:
  2643                           
  2644                           ;main.c: 102:                     control_flag=0x08;
  2645     03AE  3040               	movlw	low ((STR_22+1)| (0+32768))
  2646     03AF  1283               	bcf	3,5	;RP0=0, select bank0
  2647     03B0  1303               	bcf	3,6	;RP1=0, select bank0
  2648     03B1  00A0               	movwf	clcd_print@str
  2649     03B2  3085               	movlw	high ((STR_22+1)| (0+32768))
  2650     03B3  00A1               	movwf	clcd_print@str+1
  2651     03B4  3080               	movlw	128
  2652     03B5  00A2               	movwf	clcd_print@addr
  2653     03B6  160A  118A  2675  120A  118A  	fcall	_clcd_print
  2654     03BB                     l4238:
  2655                           
  2656                           ;main.c: 103:                         break;
  2657     03BB  01F2               	clrf	clcd_write@mode
  2658     03BC  30C6               	movlw	198
  2659     03BD  160A  118A  24BE  120A  118A  	fcall	_clcd_write
  2660     03C2                     l4240:
  2661                           
  2662                           ;main.c: 104:                 case 1:
  2663     03C2  01F2               	clrf	clcd_write@mode
  2664     03C3  300F               	movlw	15
  2665     03C4  160A  118A  24BE  120A  118A  	fcall	_clcd_write
  2666     03C9                     l4242:
  2667                           
  2668                           ;main.c: 105:                     clear_screen();
  2669     03C9  30A5               	movlw	165
  2670     03CA  1283               	bcf	3,5	;RP0=0, select bank0
  2671     03CB  1303               	bcf	3,6	;RP1=0, select bank0
  2672     03CC  00C0               	movwf	??_main
  2673     03CD                     u3987:
  2674     03CD  0BC0               	decfsz	??_main,f
  2675     03CE  2BCD               	goto	u3987
  2676     03CF  2BD0               	nop2
  2677     03D0                     l4244:
  2678                           
  2679                           ;main.c: 106:                     control_flag=0x09;
  2680     03D0  3002               	movlw	2
  2681     03D1  1283               	bcf	3,5	;RP0=0, select bank0
  2682     03D2  1303               	bcf	3,6	;RP1=0, select bank0
  2683     03D3  00C7               	movwf	main@control_flag
  2684     03D4                     l4246:
  2685                           
  2686                           ;main.c: 107: 
  2687     03D4  01C6               	clrf	main@reset_flag
  2688                           
  2689                           ;main.c: 109:                 case 2:
  2690     03D5  2CD5               	goto	l4336
  2691     03D6                     l4248:
  2692     03D6  3003               	movlw	3
  2693     03D7  0647               	xorwf	main@control_flag,w
  2694     03D8  1D03               	btfss	3,2
  2695     03D9  2BDB               	goto	u3961
  2696     03DA  2BDC               	goto	u3960
  2697     03DB                     u3961:
  2698     03DB  2CD5               	goto	l4336
  2699     03DC                     u3960:
  2700     03DC                     l4250:
  2701     03DC  301F               	movlw	31
  2702     03DD  0648               	xorwf	main@key,w
  2703     03DE  1D03               	btfss	3,2
  2704     03DF  2BE1               	goto	u3971
  2705     03E0  2BE2               	goto	u3970
  2706     03E1                     u3971:
  2707     03E1  2CD5               	goto	l4336
  2708     03E2                     u3970:
  2709     03E2  2C2F               	goto	l4280
  2710     03E3                     l4254:
  2711                           
  2712                           ;main.c: 114:                         break;
  2713     03E3  160A  118A  240A  120A  118A  	fcall	_clear_screen
  2714     03E8                     l4256:
  2715                           
  2716                           ;main.c: 115: 
  2717     03E8  3008               	movlw	8
  2718     03E9  1283               	bcf	3,5	;RP0=0, select bank0
  2719     03EA  1303               	bcf	3,6	;RP1=0, select bank0
  2720     03EB  00C7               	movwf	main@control_flag
  2721                           
  2722                           ;main.c: 116:                   case 3:
  2723     03EC  2CD5               	goto	l4336
  2724     03ED                     l4258:
  2725                           
  2726                           ;main.c: 118:                     clear_screen();
  2727     03ED  160A  118A  240A  120A  118A  	fcall	_clear_screen
  2728     03F2                     l4260:
  2729                           
  2730                           ;main.c: 119:                     control_flag=0x12;
  2731     03F2  3009               	movlw	9
  2732     03F3  1283               	bcf	3,5	;RP0=0, select bank0
  2733     03F4  1303               	bcf	3,6	;RP1=0, select bank0
  2734     03F5  00C7               	movwf	main@control_flag
  2735                           
  2736                           ;main.c: 121: 
  2737     03F6  2CD5               	goto	l4336
  2738     03F7                     l4262:
  2739                           
  2740                           ;main.c: 124:                     clear_screen();
  2741     03F7  160A  118A  240A  120A  118A  	fcall	_clear_screen
  2742     03FC                     l4264:
  2743                           
  2744                           ;main.c: 125:                          log_car_event("CL",potVal);
  2745     03FC  30A0               	movlw	low (STR_10| (0+32768))
  2746     03FD  1283               	bcf	3,5	;RP0=0, select bank0
  2747     03FE  1303               	bcf	3,6	;RP1=0, select bank0
  2748     03FF  00B2               	movwf	log_car_event@event
  2749     0400  3086               	movlw	high (STR_10| (0+32768))
  2750     0401  00B3               	movwf	log_car_event@event+1
  2751     0402  3064               	movlw	(low (_potVal| 0))& (0+255)
  2752     0403  00B4               	movwf	log_car_event@speed
  2753     0404  120A  158A  2354  120A  118A  	fcall	_log_car_event
  2754     0409                     l4266:
  2755                           
  2756                           ;main.c: 126:                     control_flag=0x11;
  2757     0409  3010               	movlw	16
  2758     040A  1283               	bcf	3,5	;RP0=0, select bank0
  2759     040B  1303               	bcf	3,6	;RP1=0, select bank0
  2760     040C  00C7               	movwf	main@control_flag
  2761                           
  2762                           ;main.c: 127:                         break;
  2763     040D  2CD5               	goto	l4336
  2764     040E                     l4268:
  2765                           
  2766                           ;main.c: 131:         }
  2767     040E  160A  118A  240A  120A  118A  	fcall	_clear_screen
  2768     0413                     l4270:
  2769                           
  2770                           ;main.c: 132: 
  2771     0413  3012               	movlw	18
  2772     0414  1283               	bcf	3,5	;RP0=0, select bank0
  2773     0415  1303               	bcf	3,6	;RP1=0, select bank0
  2774     0416  00C7               	movwf	main@control_flag
  2775                           
  2776                           ;main.c: 133: 
  2777     0417  2CD5               	goto	l4336
  2778     0418                     l4272:
  2779                           
  2780                           ;main.c: 137:             case 0x01 :
  2781     0418  160A  118A  240A  120A  118A  	fcall	_clear_screen
  2782     041D                     l4274:
  2783                           
  2784                           ;main.c: 138:                 disp_dashboard(event);
  2785     041D  309A               	movlw	low (STR_11| (0+32768))
  2786     041E  1283               	bcf	3,5	;RP0=0, select bank0
  2787     041F  1303               	bcf	3,6	;RP1=0, select bank0
  2788     0420  00B2               	movwf	log_car_event@event
  2789     0421  3086               	movlw	high (STR_11| (0+32768))
  2790     0422  00B3               	movwf	log_car_event@event+1
  2791     0423  3064               	movlw	(low (_potVal| 0))& (0+255)
  2792     0424  00B4               	movwf	log_car_event@speed
  2793     0425  120A  158A  2354  120A  118A  	fcall	_log_car_event
  2794     042A                     l4276:
  2795                           
  2796                           ;main.c: 139:                 break;
  2797     042A  3011               	movlw	17
  2798     042B  1283               	bcf	3,5	;RP0=0, select bank0
  2799     042C  1303               	bcf	3,6	;RP1=0, select bank0
  2800     042D  00C7               	movwf	main@control_flag
  2801                           
  2802                           ;main.c: 140: 
  2803     042E  2CD5               	goto	l4336
  2804     042F                     l4280:
  2805     042F  0845               	movf	main@menu_pos,w
  2806                           
  2807                           ; Switch size 1, requested type "simple"
  2808                           ; Number of cases is 5, Range of values is 0 to 4
  2809                           ; switch strategies available:
  2810                           ; Name         Instructions Cycles
  2811                           ; simple_byte           16     9 (average)
  2812                           ; direct_byte           23     8 (fixed)
  2813                           ; jumptable            260     6 (fixed)
  2814                           ;	Chosen strategy is simple_byte
  2815     0430  3A00               	xorlw	0	; case 0
  2816     0431  1903               	skipnz
  2817     0432  2BE3               	goto	l4254
  2818     0433  3A01               	xorlw	1	; case 1
  2819     0434  1903               	skipnz
  2820     0435  2BED               	goto	l4258
  2821     0436  3A03               	xorlw	3	; case 2
  2822     0437  1903               	skipnz
  2823     0438  2BF7               	goto	l4262
  2824     0439  3A01               	xorlw	1	; case 3
  2825     043A  1903               	skipnz
  2826     043B  2C0E               	goto	l4268
  2827     043C  3A07               	xorlw	7	; case 4
  2828     043D  1903               	skipnz
  2829     043E  2C18               	goto	l4272
  2830     043F  2CD5               	goto	l4336
  2831     0440                     l4282:
  2832                           
  2833                           ;main.c: 151:                     case 0x07 :
  2834     0440  306C               	movlw	(low (_event| 0))& (0+255)
  2835     0441  00AF               	movwf	disp_dashboard@event
  2836     0442  160A  118A  2643  120A  118A  	fcall	_disp_dashboard
  2837                           
  2838                           ;main.c: 152:                             control_flag=0x03;
  2839     0447  2ADB               	goto	l4178
  2840     0448                     l111:	
  2841                           ;main.c: 157:                             TMR0IE = 0;
  2842                           
  2843                           
  2844                           ;main.c: 158:                                 continue;
  2845     0448  3001               	movlw	1
  2846     0449  1283               	bcf	3,5	;RP0=0, select bank0
  2847     044A  1303               	bcf	3,6	;RP1=0, select bank0
  2848     044B  00C7               	movwf	main@control_flag
  2849                           
  2850                           ;main.c: 159: 
  2851     044C  128B               	bcf	11,5	;volatile
  2852     044D                     l4284:
  2853                           
  2854                           ;main.c: 160:                 }
  2855     044D  01F2               	clrf	clcd_write@mode
  2856     044E  300C               	movlw	12
  2857     044F  160A  118A  24BE  120A  118A  	fcall	_clcd_write
  2858     0454                     l4286:
  2859                           
  2860                           ;main.c: 161: 
  2861     0454  30A5               	movlw	165
  2862     0455  1283               	bcf	3,5	;RP0=0, select bank0
  2863     0456  1303               	bcf	3,6	;RP1=0, select bank0
  2864     0457  00C0               	movwf	??_main
  2865     0458                     u3997:
  2866     0458  0BC0               	decfsz	??_main,f
  2867     0459  2C58               	goto	u3997
  2868     045A  2C5B               	nop2
  2869                           
  2870                           ;main.c: 162:                 break;
  2871     045B  2ADB               	goto	l4178
  2872     045C                     l113:	
  2873                           ;main.c: 164: 
  2874                           
  2875                           
  2876                           ;main.c: 165: 
  2877     045C  3003               	movlw	3
  2878     045D  1283               	bcf	3,5	;RP0=0, select bank0
  2879     045E  1303               	bcf	3,6	;RP1=0, select bank0
  2880     045F  00C7               	movwf	main@control_flag
  2881     0460                     l4288:
  2882                           
  2883                           ;main.c: 166:             case 0x03 :
  2884     0460  01C6               	clrf	main@reset_flag
  2885     0461                     l4290:
  2886                           
  2887                           ;main.c: 167:                 menu_pos=login_menu(key);
  2888     0461  160A  118A  240A  120A  118A  	fcall	_clear_screen
  2889     0466                     l4292:
  2890                           
  2891                           ;main.c: 168:                 break;
  2892     0466  01F2               	clrf	clcd_write@mode
  2893     0467  300C               	movlw	12
  2894     0468  160A  118A  24BE  120A  118A  	fcall	_clcd_write
  2895     046D                     l4294:
  2896                           
  2897                           ;main.c: 169: 
  2898     046D  30A5               	movlw	165
  2899     046E  1283               	bcf	3,5	;RP0=0, select bank0
  2900     046F  1303               	bcf	3,6	;RP1=0, select bank0
  2901     0470  00C0               	movwf	??_main
  2902     0471                     u4007:
  2903     0471  0BC0               	decfsz	??_main,f
  2904     0472  2C71               	goto	u4007
  2905     0473  2C74               	nop2
  2906     0474                     l4296:
  2907                           
  2908                           ;main.c: 170:             case 0x08 :
  2909     0474  128B               	bcf	11,5	;volatile
  2910                           
  2911                           ;main.c: 171:                 view_log(key);
  2912     0475  2ADB               	goto	l4178
  2913     0476                     l4300:
  2914     0476  0846               	movf	main@reset_flag,w
  2915     0477  00A5               	movwf	login@reset_flag
  2916     0478  0848               	movf	main@key,w
  2917     0479  120A  158A  268C  120A  118A  	fcall	_login
  2918                           
  2919                           ; Switch size 1, requested type "simple"
  2920                           ; Number of cases is 2, Range of values is 5 to 7
  2921                           ; switch strategies available:
  2922                           ; Name         Instructions Cycles
  2923                           ; simple_byte            7     4 (average)
  2924                           ; direct_byte           20    11 (fixed)
  2925                           ; jumptable            263     9 (fixed)
  2926                           ;	Chosen strategy is simple_byte
  2927     047E  3A05               	xorlw	5	; case 5
  2928     047F  1903               	skipnz
  2929     0480  2C48               	goto	l111
  2930     0481  3A02               	xorlw	2	; case 7
  2931     0482  1903               	skipnz
  2932     0483  2C5C               	goto	l113
  2933     0484  2ADB               	goto	l4178
  2934     0485                     l4302:
  2935                           
  2936                           ;main.c: 180:                         control_flag=0x03;
  2937     0485  0848               	movf	main@key,w
  2938     0486  120A  158A  2438  120A  118A  	fcall	_login_menu
  2939     048B  1283               	bcf	3,5	;RP0=0, select bank0
  2940     048C  1303               	bcf	3,6	;RP1=0, select bank0
  2941     048D  00C5               	movwf	main@menu_pos
  2942                           
  2943                           ;main.c: 181:                         break;
  2944     048E  2ADB               	goto	l4178
  2945     048F                     l4304:
  2946                           
  2947                           ;main.c: 184:                         continue;
  2948     048F  0848               	movf	main@key,w
  2949     0490  120A  158A  257C  120A  118A  	fcall	_view_log
  2950                           
  2951                           ;main.c: 186:                 }
  2952     0495  2ADB               	goto	l4178
  2953     0496                     l4306:
  2954                           
  2955                           ;main.c: 189: 
  2956     0496  0848               	movf	main@key,w
  2957     0497  120A  118A  26A8  120A  118A  	fcall	_change_passwd
  2958     049C  1283               	bcf	3,5	;RP0=0, select bank0
  2959     049D  1303               	bcf	3,6	;RP1=0, select bank0
  2960     049E  00DB               	movwf	_res
  2961                           
  2962                           ;main.c: 190:             case 0x09 :
  2963     049F  2CAA               	goto	l4314
  2964     04A0                     l4308:
  2965                           
  2966                           ;main.c: 192:                 clear_screen();
  2967     04A0  160A  118A  240A  120A  118A  	fcall	_clear_screen
  2968     04A5                     l4310:
  2969                           
  2970                           ;main.c: 193:                 control_flag=0x03;
  2971     04A5  3003               	movlw	3
  2972     04A6  1283               	bcf	3,5	;RP0=0, select bank0
  2973     04A7  1303               	bcf	3,6	;RP1=0, select bank0
  2974     04A8  00C7               	movwf	main@control_flag
  2975                           
  2976                           ;main.c: 194: 
  2977     04A9  2ADB               	goto	l4178
  2978     04AA                     l4314:
  2979     04AA  085B               	movf	_res,w
  2980                           
  2981                           ; Switch size 1, requested type "simple"
  2982                           ; Number of cases is 1, Range of values is 7 to 7
  2983                           ; switch strategies available:
  2984                           ; Name         Instructions Cycles
  2985                           ; simple_byte            4     3 (average)
  2986                           ; direct_byte           14    11 (fixed)
  2987                           ; jumptable            263     9 (fixed)
  2988                           ;	Chosen strategy is simple_byte
  2989     04AB  3A07               	xorlw	7	; case 7
  2990     04AC  1903               	skipnz
  2991     04AD  2CA0               	goto	l4308
  2992     04AE  2ADB               	goto	l4178
  2993     04AF                     l4316:
  2994                           
  2995                           ;main.c: 204:                       control_flag=0x01;
  2996     04AF  160A  118A  25E1  120A  118A  	fcall	_clear_logs
  2997     04B4  2CA0               	goto	l4308
  2998     04B5                     l4322:
  2999                           
  3000                           ;main.c: 212:         }
  3001     04B5  0848               	movf	main@key,w
  3002     04B6  120A  118A  2054  120A  118A  	fcall	_set_time
  3003     04BB  1283               	bcf	3,5	;RP0=0, select bank0
  3004     04BC  1303               	bcf	3,6	;RP1=0, select bank0
  3005     04BD  00DB               	movwf	_res
  3006     04BE                     l4324:
  3007                           
  3008                           ;main.c: 213: 
  3009     04BE  168B               	bsf	11,5	;volatile
  3010                           
  3011                           ;main.c: 214: 
  3012     04BF  2CCA               	goto	l4332
  3013     04C0                     l4326:
  3014                           
  3015                           ;main.c: 216:     return;
  3016     04C0  160A  118A  240A  120A  118A  	fcall	_clear_screen
  3017     04C5                     l4328:
  3018                           
  3019                           ;main.c: 217: }
  3020     04C5  3001               	movlw	1
  3021     04C6  1283               	bcf	3,5	;RP0=0, select bank0
  3022     04C7  1303               	bcf	3,6	;RP1=0, select bank0
  3023     04C8  00C7               	movwf	main@control_flag
  3024     04C9  2ADB               	goto	l4178
  3025     04CA                     l4332:
  3026     04CA  085B               	movf	_res,w
  3027                           
  3028                           ; Switch size 1, requested type "simple"
  3029                           ; Number of cases is 1, Range of values is 7 to 7
  3030                           ; switch strategies available:
  3031                           ; Name         Instructions Cycles
  3032                           ; simple_byte            4     3 (average)
  3033                           ; direct_byte           14    11 (fixed)
  3034                           ; jumptable            263     9 (fixed)
  3035                           ;	Chosen strategy is simple_byte
  3036     04CB  3A07               	xorlw	7	; case 7
  3037     04CC  1903               	skipnz
  3038     04CD  2CC0               	goto	l4326
  3039     04CE  2ADB               	goto	l4178
  3040     04CF                     l4334:
  3041     04CF  120A  158A  24CC  120A  118A  	fcall	_download_log
  3042     04D4  2ADB               	goto	l4178
  3043     04D5                     l4336:
  3044     04D5  1283               	bcf	3,5	;RP0=0, select bank0
  3045     04D6  1303               	bcf	3,6	;RP1=0, select bank0
  3046     04D7  0847               	movf	main@control_flag,w
  3047                           
  3048                           ; Switch size 1, requested type "simple"
  3049                           ; Number of cases is 8, Range of values is 1 to 18
  3050                           ; switch strategies available:
  3051                           ; Name         Instructions Cycles
  3052                           ; simple_byte           25    13 (average)
  3053                           ; direct_byte           65    11 (fixed)
  3054                           ; jumptable            263     9 (fixed)
  3055                           ;	Chosen strategy is simple_byte
  3056     04D8  3A01               	xorlw	1	; case 1
  3057     04D9  1903               	skipnz
  3058     04DA  2C40               	goto	l4282
  3059     04DB  3A03               	xorlw	3	; case 2
  3060     04DC  1903               	skipnz
  3061     04DD  2C76               	goto	l4300
  3062     04DE  3A01               	xorlw	1	; case 3
  3063     04DF  1903               	skipnz
  3064     04E0  2C85               	goto	l4302
  3065     04E1  3A0B               	xorlw	11	; case 8
  3066     04E2  1903               	skipnz
  3067     04E3  2C8F               	goto	l4304
  3068     04E4  3A01               	xorlw	1	; case 9
  3069     04E5  1903               	skipnz
  3070     04E6  2CAF               	goto	l4316
  3071     04E7  3A19               	xorlw	25	; case 16
  3072     04E8  1903               	skipnz
  3073     04E9  2C96               	goto	l4306
  3074     04EA  3A01               	xorlw	1	; case 17
  3075     04EB  1903               	skipnz
  3076     04EC  2CB5               	goto	l4322
  3077     04ED  3A03               	xorlw	3	; case 18
  3078     04EE  1903               	skipnz
  3079     04EF  2CCF               	goto	l4334
  3080     04F0  2ADB               	goto	l4178
  3081     04F1  120A  118A  280C   	ljmp	start
  3082     04F4                     __end_of_main:
  3083                           
  3084                           	psect	text1
  3085     0D7C                     __ptext1:	
  3086 ;; *************** function _view_log *****************
  3087 ;; Defined at:
  3088 ;;		line 196 in file "bb.c"
  3089 ;; Parameters:    Size  Location     Type
  3090 ;;  key             1    wreg     unsigned char 
  3091 ;; Auto vars:     Size  Location     Type
  3092 ;;  key             1   15[BANK0 ] unsigned char 
  3093 ;;  i               2   16[BANK0 ] int 
  3094 ;;  add             1   14[BANK0 ] unsigned char 
  3095 ;; Return value:  Size  Location     Type
  3096 ;;                  1    wreg      unsigned char 
  3097 ;; Registers used:
  3098 ;;		wreg, fsr0l, fsr0h, status,2, status,0, pclath, btemp1, cstack
  3099 ;; Tracked objects:
  3100 ;;		On entry : 0/0
  3101 ;;		On exit  : 0/0
  3102 ;;		Unchanged: 0/0
  3103 ;; Data sizes:     COMMON   BANK0   BANK1   BANK3   BANK2
  3104 ;;      Params:         0       0       0       0       0
  3105 ;;      Locals:         0       4       0       0       0
  3106 ;;      Temps:          0       0       0       0       0
  3107 ;;      Totals:         0       4       0       0       0
  3108 ;;Total ram usage:        4 bytes
  3109 ;; Hardware stack levels used: 1
  3110 ;; Hardware stack levels required when called: 2
  3111 ;; This function calls:
  3112 ;;		___bmul
  3113 ;;		_clcd_print
  3114 ;;		_clcd_putch
  3115 ;;		_read_external_eeprom
  3116 ;; This function is called by:
  3117 ;;		_main
  3118 ;; This function uses a non-reentrant model
  3119 ;;
  3120                           
  3121     0D7C                     _view_log:	
  3122                           ;psect for function _view_log
  3123                           
  3124                           
  3125                           ;incstack = 0
  3126                           ; Regs used in _view_log: [wreg-fsr0h+status,2+status,0+pclath+btemp1+cstack]
  3127                           ;view_log@key stored from wreg
  3128     0D7C  1283               	bcf	3,5	;RP0=0, select bank0
  3129     0D7D  1303               	bcf	3,6	;RP1=0, select bank0
  3130     0D7E  00AF               	movwf	view_log@key
  3131     0D7F                     l3832:
  3132     0D7F                     l3834:
  3133                           
  3134                           ;bb.c: 203:     if (event_count == -1)
  3135     0D7F  0A6A               	incf	_event_count,w
  3136     0D80  1D03               	skipz
  3137     0D81  2D86               	goto	u3441
  3138     0D82  0A6B               	incf	_event_count+1,w
  3139     0D83  1D03               	btfss	3,2
  3140     0D84  2D86               	goto	u3441
  3141     0D85  2D87               	goto	u3440
  3142     0D86                     u3441:
  3143     0D86  2DA0               	goto	l3840
  3144     0D87                     u3440:
  3145     0D87                     l3836:
  3146                           
  3147                           ;bb.c: 204:     {;bb.c: 205:         clcd_print("# TIME     E  SP", (0x80 + 0));
  3148     0D87  3073               	movlw	low (STR_23| (0+32768))
  3149     0D88  00A0               	movwf	clcd_print@str
  3150     0D89  3085               	movlw	high (STR_23| (0+32768))
  3151     0D8A  00A1               	movwf	clcd_print@str+1
  3152     0D8B  3080               	movlw	128
  3153     0D8C  00A2               	movwf	clcd_print@addr
  3154     0D8D  160A  118A  2675  120A  158A  	fcall	_clcd_print
  3155                           
  3156                           ;bb.c: 206:         clcd_print("No logs present", (0xC0 + 0));
  3157     0D92  30E8               	movlw	low (STR_24| (0+32768))
  3158     0D93  1283               	bcf	3,5	;RP0=0, select bank0
  3159     0D94  1303               	bcf	3,6	;RP1=0, select bank0
  3160     0D95  00A0               	movwf	clcd_print@str
  3161     0D96  3085               	movlw	high (STR_24| (0+32768))
  3162     0D97  00A1               	movwf	clcd_print@str+1
  3163     0D98  30C0               	movlw	192
  3164     0D99  00A2               	movwf	clcd_print@addr
  3165     0D9A  160A  118A  2675  120A  158A  	fcall	_clcd_print
  3166     0D9F  2E8B               	goto	l253
  3167     0DA0                     l3840:
  3168                           
  3169                           ;bb.c: 210:     if (key == 0x2F && next < event_count)
  3170     0DA0  302F               	movlw	47
  3171     0DA1  062F               	xorwf	view_log@key,w
  3172     0DA2  1D03               	btfss	3,2
  3173     0DA3  2DA5               	goto	u3451
  3174     0DA4  2DA6               	goto	u3450
  3175     0DA5                     u3451:
  3176     0DA5  2DB6               	goto	l3846
  3177     0DA6                     u3450:
  3178     0DA6                     l3842:
  3179     0DA6  086B               	movf	_event_count+1,w
  3180     0DA7  3A80               	xorlw	128
  3181     0DA8  3C80               	sublw	128
  3182     0DA9  1D03               	skipz
  3183     0DAA  2DAD               	goto	u3465
  3184     0DAB  086A               	movf	_event_count,w
  3185     0DAC  0268               	subwf	_next,w
  3186     0DAD                     u3465:
  3187     0DAD  1803               	skipnc
  3188     0DAE  2DB0               	goto	u3461
  3189     0DAF  2DB1               	goto	u3460
  3190     0DB0                     u3461:
  3191     0DB0  2DB6               	goto	l3846
  3192     0DB1                     u3460:
  3193     0DB1                     l3844:
  3194                           
  3195                           ;bb.c: 211:         next++;
  3196     0DB1  3001               	movlw	1
  3197     0DB2  1283               	bcf	3,5	;RP0=0, select bank0
  3198     0DB3  1303               	bcf	3,6	;RP1=0, select bank0
  3199     0DB4  07E8               	addwf	_next,f
  3200     0DB5  2DC5               	goto	l3852
  3201     0DB6                     l3846:
  3202     0DB6  3037               	movlw	55
  3203     0DB7  1283               	bcf	3,5	;RP0=0, select bank0
  3204     0DB8  1303               	bcf	3,6	;RP1=0, select bank0
  3205     0DB9  062F               	xorwf	view_log@key,w
  3206     0DBA  1D03               	btfss	3,2
  3207     0DBB  2DBD               	goto	u3471
  3208     0DBC  2DBE               	goto	u3470
  3209     0DBD                     u3471:
  3210     0DBD  2DC5               	goto	l3852
  3211     0DBE                     u3470:
  3212     0DBE                     l3848:
  3213     0DBE  0868               	movf	_next,w
  3214     0DBF  1903               	btfsc	3,2
  3215     0DC0  2DC2               	goto	u3481
  3216     0DC1  2DC3               	goto	u3480
  3217     0DC2                     u3481:
  3218     0DC2  2DC5               	goto	l3852
  3219     0DC3                     u3480:
  3220     0DC3                     l3850:
  3221                           
  3222                           ;bb.c: 213:         next--;
  3223     0DC3  3001               	movlw	1
  3224     0DC4  02E8               	subwf	_next,f
  3225     0DC5                     l3852:
  3226                           
  3227                           ;bb.c: 215:     if (next > 9) next = 0;
  3228     0DC5  300A               	movlw	10
  3229     0DC6  0268               	subwf	_next,w
  3230     0DC7  1C03               	skipc
  3231     0DC8  2DCA               	goto	u3491
  3232     0DC9  2DCB               	goto	u3490
  3233     0DCA                     u3491:
  3234     0DCA  2DCC               	goto	l3858
  3235     0DCB                     u3490:
  3236     0DCB                     l3854:
  3237     0DCB  01E8               	clrf	_next
  3238     0DCC                     l3858:
  3239                           
  3240                           ;bb.c: 218:     add = next * 10;
  3241     0DCC  300A               	movlw	10
  3242     0DCD  00F2               	movwf	___bmul@multiplicand
  3243     0DCE  0868               	movf	_next,w
  3244     0DCF  160A  118A  2452  120A  158A  	fcall	___bmul
  3245     0DD4  1283               	bcf	3,5	;RP0=0, select bank0
  3246     0DD5  1303               	bcf	3,6	;RP1=0, select bank0
  3247     0DD6  00AE               	movwf	view_log@add
  3248     0DD7                     l3860:
  3249                           
  3250                           ;bb.c: 219:     for (int i = 0; i < 10; i++)
  3251     0DD7  01B0               	clrf	view_log@i
  3252     0DD8  01B1               	clrf	view_log@i+1
  3253     0DD9                     l3866:
  3254                           
  3255                           ;bb.c: 220:     {;bb.c: 221:         logData[i] = read_external_eeprom(add + i);
  3256     0DD9  1283               	bcf	3,5	;RP0=0, select bank0
  3257     0DDA  1303               	bcf	3,6	;RP1=0, select bank0
  3258     0DDB  0830               	movf	view_log@i,w
  3259     0DDC  3EA0               	addlw	(low (view_log@logData| 0))& (0+255)
  3260     0DDD  0084               	movwf	4
  3261     0DDE  0830               	movf	view_log@i,w
  3262     0DDF  072E               	addwf	view_log@add,w
  3263     0DE0  160A  118A  26DB  120A  158A  	fcall	_read_external_eeprom
  3264     0DE5  1383               	bcf	3,7	;select IRP bank1
  3265     0DE6  0080               	movwf	0
  3266     0DE7                     l3868:
  3267                           
  3268                           ;bb.c: 222:     }
  3269     0DE7  3001               	movlw	1
  3270     0DE8  1283               	bcf	3,5	;RP0=0, select bank0
  3271     0DE9  1303               	bcf	3,6	;RP1=0, select bank0
  3272     0DEA  07B0               	addwf	view_log@i,f
  3273     0DEB  1803               	skipnc
  3274     0DEC  0AB1               	incf	view_log@i+1,f
  3275     0DED  3000               	movlw	0
  3276     0DEE  07B1               	addwf	view_log@i+1,f
  3277     0DEF                     l3870:
  3278     0DEF  0831               	movf	view_log@i+1,w
  3279     0DF0  3A80               	xorlw	128
  3280     0DF1  00FF               	movwf	btemp1
  3281     0DF2  3080               	movlw	128
  3282     0DF3  027F               	subwf	btemp1,w
  3283     0DF4  1D03               	skipz
  3284     0DF5  2DF8               	goto	u3505
  3285     0DF6  300A               	movlw	10
  3286     0DF7  0230               	subwf	view_log@i,w
  3287     0DF8                     u3505:
  3288     0DF8  1C03               	skipc
  3289     0DF9  2DFB               	goto	u3501
  3290     0DFA  2DFC               	goto	u3500
  3291     0DFB                     u3501:
  3292     0DFB  2DD9               	goto	l3866
  3293     0DFC                     u3500:
  3294     0DFC                     l3872:
  3295                           
  3296                           ;bb.c: 223:     logData[10] = '\0';
  3297     0DFC  1683               	bsf	3,5	;RP0=1, select bank1
  3298     0DFD  1303               	bcf	3,6	;RP1=0, select bank1
  3299     0DFE  01AA               	clrf	(view_log@logData^(0+128)+10)
  3300     0DFF                     l3874:
  3301                           
  3302                           ;bb.c: 225:     clcd_print("# TIME     E  SP", (0x80 + 0));
  3303     0DFF  3073               	movlw	low (STR_23| (0+32768))
  3304     0E00  1283               	bcf	3,5	;RP0=0, select bank0
  3305     0E01  1303               	bcf	3,6	;RP1=0, select bank0
  3306     0E02  00A0               	movwf	clcd_print@str
  3307     0E03  3085               	movlw	high (STR_23| (0+32768))
  3308     0E04  00A1               	movwf	clcd_print@str+1
  3309     0E05  3080               	movlw	128
  3310     0E06  00A2               	movwf	clcd_print@addr
  3311     0E07  160A  118A  2675  120A  158A  	fcall	_clcd_print
  3312     0E0C                     l3876:
  3313                           
  3314                           ;bb.c: 228:     clcd_putch((next+'0'), (0xC0 + 0));
  3315     0E0C  30C0               	movlw	192
  3316     0E0D  00F8               	movwf	clcd_putch@addr
  3317     0E0E  1283               	bcf	3,5	;RP0=0, select bank0
  3318     0E0F  1303               	bcf	3,6	;RP1=0, select bank0
  3319     0E10  0868               	movf	_next,w
  3320     0E11  3E30               	addlw	48
  3321     0E12  160A  118A  248C  120A  158A  	fcall	_clcd_putch
  3322     0E17                     l3878:
  3323                           
  3324                           ;bb.c: 230:     clcd_putch(logData[0], (0xC0 + 2));
  3325     0E17  30C2               	movlw	194
  3326     0E18  00F8               	movwf	clcd_putch@addr
  3327     0E19  1683               	bsf	3,5	;RP0=1, select bank1
  3328     0E1A  1303               	bcf	3,6	;RP1=0, select bank1
  3329     0E1B  0820               	movf	view_log@logData^(0+128),w
  3330     0E1C  160A  118A  248C  120A  158A  	fcall	_clcd_putch
  3331     0E21                     l3880:
  3332                           
  3333                           ;bb.c: 231:     clcd_putch(logData[1], (0xC0 + 3));
  3334     0E21  30C3               	movlw	195
  3335     0E22  00F8               	movwf	clcd_putch@addr
  3336     0E23  1683               	bsf	3,5	;RP0=1, select bank1
  3337     0E24  1303               	bcf	3,6	;RP1=0, select bank1
  3338     0E25  0821               	movf	(view_log@logData^(0+128)+1),w
  3339     0E26  160A  118A  248C  120A  158A  	fcall	_clcd_putch
  3340     0E2B                     l3882:
  3341                           
  3342                           ;bb.c: 232:     clcd_putch(':', (0xC0 + 4));
  3343     0E2B  30C4               	movlw	196
  3344     0E2C  00F8               	movwf	clcd_putch@addr
  3345     0E2D  303A               	movlw	58
  3346     0E2E  160A  118A  248C  120A  158A  	fcall	_clcd_putch
  3347     0E33                     l3884:
  3348                           
  3349                           ;bb.c: 233:     clcd_putch(logData[2], (0xC0 + 5));
  3350     0E33  30C5               	movlw	197
  3351     0E34  00F8               	movwf	clcd_putch@addr
  3352     0E35  1683               	bsf	3,5	;RP0=1, select bank1
  3353     0E36  1303               	bcf	3,6	;RP1=0, select bank1
  3354     0E37  0822               	movf	(view_log@logData^(0+128)+2),w
  3355     0E38  160A  118A  248C  120A  158A  	fcall	_clcd_putch
  3356     0E3D                     l3886:
  3357                           
  3358                           ;bb.c: 234:     clcd_putch(logData[3], (0xC0 + 6));
  3359     0E3D  30C6               	movlw	198
  3360     0E3E  00F8               	movwf	clcd_putch@addr
  3361     0E3F  1683               	bsf	3,5	;RP0=1, select bank1
  3362     0E40  1303               	bcf	3,6	;RP1=0, select bank1
  3363     0E41  0823               	movf	(view_log@logData^(0+128)+3),w
  3364     0E42  160A  118A  248C  120A  158A  	fcall	_clcd_putch
  3365     0E47                     l3888:
  3366                           
  3367                           ;bb.c: 235:     clcd_putch(':', (0xC0 + 7));
  3368     0E47  30C7               	movlw	199
  3369     0E48  00F8               	movwf	clcd_putch@addr
  3370     0E49  303A               	movlw	58
  3371     0E4A  160A  118A  248C  120A  158A  	fcall	_clcd_putch
  3372     0E4F                     l3890:
  3373                           
  3374                           ;bb.c: 236:     clcd_putch(logData[4], (0xC0 + 8));
  3375     0E4F  30C8               	movlw	200
  3376     0E50  00F8               	movwf	clcd_putch@addr
  3377     0E51  1683               	bsf	3,5	;RP0=1, select bank1
  3378     0E52  1303               	bcf	3,6	;RP1=0, select bank1
  3379     0E53  0824               	movf	(view_log@logData^(0+128)+4),w
  3380     0E54  160A  118A  248C  120A  158A  	fcall	_clcd_putch
  3381     0E59                     l3892:
  3382                           
  3383                           ;bb.c: 237:     clcd_putch(logData[5], (0xC0 + 9));
  3384     0E59  30C9               	movlw	201
  3385     0E5A  00F8               	movwf	clcd_putch@addr
  3386     0E5B  1683               	bsf	3,5	;RP0=1, select bank1
  3387     0E5C  1303               	bcf	3,6	;RP1=0, select bank1
  3388     0E5D  0825               	movf	(view_log@logData^(0+128)+5),w
  3389     0E5E  160A  118A  248C  120A  158A  	fcall	_clcd_putch
  3390     0E63                     l3894:
  3391                           
  3392                           ;bb.c: 240:     clcd_putch(logData[6], (0xC0 + 11));
  3393     0E63  30CB               	movlw	203
  3394     0E64  00F8               	movwf	clcd_putch@addr
  3395     0E65  1683               	bsf	3,5	;RP0=1, select bank1
  3396     0E66  1303               	bcf	3,6	;RP1=0, select bank1
  3397     0E67  0826               	movf	(view_log@logData^(0+128)+6),w
  3398     0E68  160A  118A  248C  120A  158A  	fcall	_clcd_putch
  3399     0E6D                     l3896:
  3400                           
  3401                           ;bb.c: 241:     clcd_putch(logData[7], (0xC0 + 12));
  3402     0E6D  30CC               	movlw	204
  3403     0E6E  00F8               	movwf	clcd_putch@addr
  3404     0E6F  1683               	bsf	3,5	;RP0=1, select bank1
  3405     0E70  1303               	bcf	3,6	;RP1=0, select bank1
  3406     0E71  0827               	movf	(view_log@logData^(0+128)+7),w
  3407     0E72  160A  118A  248C  120A  158A  	fcall	_clcd_putch
  3408     0E77                     l3898:
  3409                           
  3410                           ;bb.c: 242:     clcd_putch(logData[8], (0xC0 + 14));
  3411     0E77  30CE               	movlw	206
  3412     0E78  00F8               	movwf	clcd_putch@addr
  3413     0E79  1683               	bsf	3,5	;RP0=1, select bank1
  3414     0E7A  1303               	bcf	3,6	;RP1=0, select bank1
  3415     0E7B  0828               	movf	(view_log@logData^(0+128)+8),w
  3416     0E7C  160A  118A  248C  120A  158A  	fcall	_clcd_putch
  3417     0E81                     l3900:
  3418                           
  3419                           ;bb.c: 243:     clcd_putch(logData[9], (0xC0 + 15));
  3420     0E81  30CF               	movlw	207
  3421     0E82  00F8               	movwf	clcd_putch@addr
  3422     0E83  1683               	bsf	3,5	;RP0=1, select bank1
  3423     0E84  1303               	bcf	3,6	;RP1=0, select bank1
  3424     0E85  0829               	movf	(view_log@logData^(0+128)+9),w
  3425     0E86  160A  118A  248C  120A  158A  	fcall	_clcd_putch
  3426     0E8B                     l253:
  3427     0E8B  0008               	return
  3428     0E8C                     __end_of_view_log:
  3429                           
  3430                           	psect	text2
  3431     14FF                     __ptext2:	
  3432 ;; *************** function _strcpy *****************
  3433 ;; Defined at:
  3434 ;;		line 3 in file "E:\embeded Sof\pic\sources\c99\common\strcpy.c"
  3435 ;; Parameters:    Size  Location     Type
  3436 ;;  dest            1    2[COMMON] PTR unsigned char 
  3437 ;;		 -> event(3), 
  3438 ;;  src             2    3[COMMON] PTR const unsigned char 
  3439 ;;		 -> STR_8(3), STR_6(3), STR_5(3), STR_4(3), 
  3440 ;;		 -> STR_3(3), STR_2(3), STR_1(3), 
  3441 ;; Auto vars:     Size  Location     Type
  3442 ;;  d               1    7[COMMON] PTR unsigned char 
  3443 ;;		 -> event(3), 
  3444 ;; Return value:  Size  Location     Type
  3445 ;;                  1    2[COMMON] PTR unsigned char 
  3446 ;; Registers used:
  3447 ;;		wreg, fsr0l, fsr0h, status,2, status,0, pclath, btemp1
  3448 ;; Tracked objects:
  3449 ;;		On entry : 0/0
  3450 ;;		On exit  : 0/0
  3451 ;;		Unchanged: 0/0
  3452 ;; Data sizes:     COMMON   BANK0   BANK1   BANK3   BANK2
  3453 ;;      Params:         3       0       0       0       0
  3454 ;;      Locals:         1       0       0       0       0
  3455 ;;      Temps:          2       0       0       0       0
  3456 ;;      Totals:         6       0       0       0       0
  3457 ;;Total ram usage:        6 bytes
  3458 ;; Hardware stack levels used: 2
  3459 ;; Hardware stack levels required when called: 1
  3460 ;; This function calls:
  3461 ;;		Nothing
  3462 ;; This function is called by:
  3463 ;;		_main
  3464 ;; This function uses a non-reentrant model
  3465 ;;
  3466                           
  3467     14FF                     _strcpy:	
  3468                           ;psect for function _strcpy
  3469                           
  3470     14FF                     l2740:	
  3471                           ;incstack = 0
  3472                           ; Regs used in _strcpy: [wreg-fsr0h+status,2+status,0+pclath+btemp1]
  3473                           
  3474     14FF  0872               	movf	strcpy@dest,w
  3475     1500  00F7               	movwf	strcpy@d
  3476     1501                     l2742:
  3477     1501  0874               	movf	strcpy@src+1,w
  3478     1502  00F6               	movwf	??_strcpy+1
  3479     1503  0873               	movf	strcpy@src,w
  3480     1504  00F5               	movwf	??_strcpy
  3481     1505  0AF3               	incf	strcpy@src,f
  3482     1506  1903               	skipnz
  3483     1507  0AF4               	incf	strcpy@src+1,f
  3484     1508  0876               	movf	??_strcpy+1,w
  3485     1509  1283               	bcf	3,5	;RP0=0, select bank0
  3486     150A  1303               	bcf	3,6	;RP1=0, select bank0
  3487     150B  00FF               	movwf	btemp1
  3488     150C  0875               	movf	??_strcpy,w
  3489     150D  0084               	movwf	4
  3490     150E  120A  118A  27EE  160A  118A  	fcall	stringtab
  3491     1513  00FF               	movwf	btemp1
  3492     1514  0877               	movf	strcpy@d,w
  3493     1515  0AF7               	incf	strcpy@d,f
  3494     1516  0084               	movwf	4
  3495     1517  087F               	movf	btemp1,w
  3496     1518  1383               	bcf	3,7	;select IRP bank0
  3497     1519  0080               	movwf	0
  3498     151A  0800               	movf	0,w
  3499     151B  1D03               	btfss	3,2
  3500     151C  2D1E               	goto	u2121
  3501     151D  2D1F               	goto	u2120
  3502     151E                     u2121:
  3503     151E  2D01               	goto	l2742
  3504     151F                     u2120:
  3505     151F                     l1137:
  3506     151F  0008               	return
  3507     1520                     __end_of_strcpy:
  3508                           
  3509                           	psect	text3
  3510     0054                     __ptext3:	
  3511 ;; *************** function _set_time *****************
  3512 ;; Defined at:
  3513 ;;		line 379 in file "bb.c"
  3514 ;; Parameters:    Size  Location     Type
  3515 ;;  key             1    wreg     unsigned char 
  3516 ;; Auto vars:     Size  Location     Type
  3517 ;;  key             1   16[BANK0 ] unsigned char 
  3518 ;;  ss              3   23[BANK0 ] unsigned char [3]
  3519 ;;  mm              3   20[BANK0 ] unsigned char [3]
  3520 ;;  hh              3   17[BANK0 ] unsigned char [3]
  3521 ;;  sec             2   30[BANK0 ] int 
  3522 ;;  min             2   28[BANK0 ] int 
  3523 ;;  hour            2   26[BANK0 ] int 
  3524 ;; Return value:  Size  Location     Type
  3525 ;;                  1    wreg      unsigned char 
  3526 ;; Registers used:
  3527 ;;		wreg, fsr0l, fsr0h, status,2, status,0, pclath, btemp1, cstack
  3528 ;; Tracked objects:
  3529 ;;		On entry : 0/0
  3530 ;;		On exit  : 0/0
  3531 ;;		Unchanged: 0/0
  3532 ;; Data sizes:     COMMON   BANK0   BANK1   BANK3   BANK2
  3533 ;;      Params:         0       0       0       0       0
  3534 ;;      Locals:         0      16       0       0       0
  3535 ;;      Temps:          0       4       0       0       0
  3536 ;;      Totals:         0      20       0       0       0
  3537 ;;Total ram usage:       20 bytes
  3538 ;; Hardware stack levels used: 1
  3539 ;; Hardware stack levels required when called: 3
  3540 ;; This function calls:
  3541 ;;		___awdiv
  3542 ;;		___awmod
  3543 ;;		___wmul
  3544 ;;		_clcd_print
  3545 ;;		_clcd_putch
  3546 ;;		_clear_screen
  3547 ;;		_dec_to_bcd
  3548 ;;		_i2c_start
  3549 ;;		_i2c_stop
  3550 ;;		_i2c_write
  3551 ;;		_strncpy
  3552 ;; This function is called by:
  3553 ;;		_main
  3554 ;; This function uses a non-reentrant model
  3555 ;;
  3556                           
  3557     0054                     _set_time:	
  3558                           ;psect for function _set_time
  3559                           
  3560                           
  3561                           ;incstack = 0
  3562                           ; Regs used in _set_time: [wreg-fsr0h+status,2+status,0+pclath+btemp1+cstack]
  3563                           ;set_time@key stored from wreg
  3564     0054  1283               	bcf	3,5	;RP0=0, select bank0
  3565     0055  1303               	bcf	3,6	;RP1=0, select bank0
  3566     0056  00B0               	movwf	set_time@key
  3567     0057                     l4008:
  3568                           
  3569                           ;bb.c: 379: char set_time(unsigned char key);bb.c: 380: {;bb.c: 381:     char hh[3], mm[
      +                          3], ss[3];;bb.c: 382:     static unsigned char field = 0;;bb.c: 383:     static unsigned
      +                           char edited = 0;;bb.c: 384:     int hour, min, sec;;bb.c: 387:     strncpy(hh, time, 2)
      +                          ; hh[2] = '\0';
  3570     0057  3031               	movlw	(low (set_time@hh| 0))& (0+255)
  3571     0058  00F2               	movwf	strncpy@d
  3572     0059  305D               	movlw	(low (_time| 0))& (0+255)
  3573     005A  00F3               	movwf	strncpy@s
  3574     005B  3000               	movlw	0
  3575     005C  00F4               	movwf	strncpy@s+1
  3576     005D  3002               	movlw	2
  3577     005E  00F5               	movwf	strncpy@n
  3578     005F  3000               	movlw	0
  3579     0060  00F6               	movwf	strncpy@n+1
  3580     0061  160A  118A  27BC  120A  118A  	fcall	_strncpy
  3581     0066                     l4010:
  3582     0066  1283               	bcf	3,5	;RP0=0, select bank0
  3583     0067  1303               	bcf	3,6	;RP1=0, select bank0
  3584     0068  01B3               	clrf	set_time@hh+2
  3585     0069                     l4012:
  3586                           
  3587                           ;bb.c: 388:     strncpy(mm, &time[2], 2); mm[2] = '\0';
  3588     0069  3034               	movlw	(low (set_time@mm| 0))& (0+255)
  3589     006A  00F2               	movwf	strncpy@d
  3590     006B  305F               	movlw	(low ((_time| 0+2)))& (0+255)
  3591     006C  00F3               	movwf	strncpy@s
  3592     006D  3000               	movlw	0
  3593     006E  00F4               	movwf	strncpy@s+1
  3594     006F  3002               	movlw	2
  3595     0070  00F5               	movwf	strncpy@n
  3596     0071  3000               	movlw	0
  3597     0072  00F6               	movwf	strncpy@n+1
  3598     0073  160A  118A  27BC  120A  118A  	fcall	_strncpy
  3599     0078  1283               	bcf	3,5	;RP0=0, select bank0
  3600     0079  1303               	bcf	3,6	;RP1=0, select bank0
  3601     007A  01B6               	clrf	set_time@mm+2
  3602     007B                     l4014:
  3603                           
  3604                           ;bb.c: 389:     strncpy(ss, &time[4], 2); ss[2] = '\0';
  3605     007B  3037               	movlw	(low (set_time@ss| 0))& (0+255)
  3606     007C  00F2               	movwf	strncpy@d
  3607     007D  3061               	movlw	(low ((_time| 0+4)))& (0+255)
  3608     007E  00F3               	movwf	strncpy@s
  3609     007F  3000               	movlw	0
  3610     0080  00F4               	movwf	strncpy@s+1
  3611     0081  3002               	movlw	2
  3612     0082  00F5               	movwf	strncpy@n
  3613     0083  3000               	movlw	0
  3614     0084  00F6               	movwf	strncpy@n+1
  3615     0085  160A  118A  27BC  120A  118A  	fcall	_strncpy
  3616     008A                     l4016:
  3617     008A  1283               	bcf	3,5	;RP0=0, select bank0
  3618     008B  1303               	bcf	3,6	;RP1=0, select bank0
  3619     008C  01B9               	clrf	set_time@ss+2
  3620     008D                     l4018:
  3621                           
  3622                           ;bb.c: 392:     hour = (hh[0] - '0') * 10 + (hh[1] - '0');
  3623     008D  0831               	movf	set_time@hh,w
  3624     008E  00AC               	movwf	??_set_time
  3625     008F  01AD               	clrf	??_set_time+1
  3626     0090  082C               	movf	??_set_time,w
  3627     0091  00F2               	movwf	___wmul@multiplier
  3628     0092  082D               	movf	??_set_time+1,w
  3629     0093  00F3               	movwf	___wmul@multiplier+1
  3630     0094  300A               	movlw	10
  3631     0095  00F4               	movwf	___wmul@multiplicand
  3632     0096  3000               	movlw	0
  3633     0097  00F5               	movwf	___wmul@multiplicand+1
  3634     0098  160A  118A  2544  120A  118A  	fcall	___wmul
  3635     009D  1283               	bcf	3,5	;RP0=0, select bank0
  3636     009E  1303               	bcf	3,6	;RP1=0, select bank0
  3637     009F  0832               	movf	set_time@hh+1,w
  3638     00A0  0772               	addwf	?___wmul,w
  3639     00A1  00AE               	movwf	??_set_time+2
  3640     00A2  3000               	movlw	0
  3641     00A3  1803               	skipnc
  3642     00A4  3001               	movlw	1
  3643     00A5  0773               	addwf	?___wmul+1,w
  3644     00A6  00AF               	movwf	??_set_time+3
  3645     00A7  082E               	movf	??_set_time+2,w
  3646     00A8  3EF0               	addlw	240
  3647     00A9  00BA               	movwf	set_time@hour
  3648     00AA  082F               	movf	??_set_time+3,w
  3649     00AB  1803               	skipnc
  3650     00AC  3E01               	addlw	1
  3651     00AD  3EFD               	addlw	253
  3652     00AE  00BB               	movwf	set_time@hour+1
  3653     00AF                     l4020:
  3654                           
  3655                           ;bb.c: 393:     min = (mm[0] - '0') * 10 + (mm[1] - '0');
  3656     00AF  0834               	movf	set_time@mm,w
  3657     00B0  00AC               	movwf	??_set_time
  3658     00B1  01AD               	clrf	??_set_time+1
  3659     00B2  082C               	movf	??_set_time,w
  3660     00B3  00F2               	movwf	___wmul@multiplier
  3661     00B4  082D               	movf	??_set_time+1,w
  3662     00B5  00F3               	movwf	___wmul@multiplier+1
  3663     00B6  300A               	movlw	10
  3664     00B7  00F4               	movwf	___wmul@multiplicand
  3665     00B8  3000               	movlw	0
  3666     00B9  00F5               	movwf	___wmul@multiplicand+1
  3667     00BA  160A  118A  2544  120A  118A  	fcall	___wmul
  3668     00BF  1283               	bcf	3,5	;RP0=0, select bank0
  3669     00C0  1303               	bcf	3,6	;RP1=0, select bank0
  3670     00C1  0835               	movf	set_time@mm+1,w
  3671     00C2  0772               	addwf	?___wmul,w
  3672     00C3  00AE               	movwf	??_set_time+2
  3673     00C4  3000               	movlw	0
  3674     00C5  1803               	skipnc
  3675     00C6  3001               	movlw	1
  3676     00C7  0773               	addwf	?___wmul+1,w
  3677     00C8  00AF               	movwf	??_set_time+3
  3678     00C9  082E               	movf	??_set_time+2,w
  3679     00CA  3EF0               	addlw	240
  3680     00CB  00BC               	movwf	set_time@min
  3681     00CC  082F               	movf	??_set_time+3,w
  3682     00CD  1803               	skipnc
  3683     00CE  3E01               	addlw	1
  3684     00CF  3EFD               	addlw	253
  3685     00D0  00BD               	movwf	set_time@min+1
  3686     00D1                     l4022:
  3687                           
  3688                           ;bb.c: 394:     sec = (ss[0] - '0') * 10 + (ss[1] - '0');
  3689     00D1  0837               	movf	set_time@ss,w
  3690     00D2  00AC               	movwf	??_set_time
  3691     00D3  01AD               	clrf	??_set_time+1
  3692     00D4  082C               	movf	??_set_time,w
  3693     00D5  00F2               	movwf	___wmul@multiplier
  3694     00D6  082D               	movf	??_set_time+1,w
  3695     00D7  00F3               	movwf	___wmul@multiplier+1
  3696     00D8  300A               	movlw	10
  3697     00D9  00F4               	movwf	___wmul@multiplicand
  3698     00DA  3000               	movlw	0
  3699     00DB  00F5               	movwf	___wmul@multiplicand+1
  3700     00DC  160A  118A  2544  120A  118A  	fcall	___wmul
  3701     00E1  1283               	bcf	3,5	;RP0=0, select bank0
  3702     00E2  1303               	bcf	3,6	;RP1=0, select bank0
  3703     00E3  0838               	movf	set_time@ss+1,w
  3704     00E4  0772               	addwf	?___wmul,w
  3705     00E5  00AE               	movwf	??_set_time+2
  3706     00E6  3000               	movlw	0
  3707     00E7  1803               	skipnc
  3708     00E8  3001               	movlw	1
  3709     00E9  0773               	addwf	?___wmul+1,w
  3710     00EA  00AF               	movwf	??_set_time+3
  3711     00EB  082E               	movf	??_set_time+2,w
  3712     00EC  3EF0               	addlw	240
  3713     00ED  00BE               	movwf	set_time@sec
  3714     00EE  082F               	movf	??_set_time+3,w
  3715     00EF  1803               	skipnc
  3716     00F0  3E01               	addlw	1
  3717     00F1  3EFD               	addlw	253
  3718     00F2  00BF               	movwf	set_time@sec+1
  3719     00F3                     l4024:
  3720                           
  3721                           ;bb.c: 399:     if (key == 0x2F)
  3722     00F3  302F               	movlw	47
  3723     00F4  0630               	xorwf	set_time@key,w
  3724     00F5  1D03               	btfss	3,2
  3725     00F6  28F8               	goto	u3611
  3726     00F7  28F9               	goto	u3610
  3727     00F8                     u3611:
  3728     00F8  2902               	goto	l4032
  3729     00F9                     u3610:
  3730     00F9                     l4026:
  3731                           
  3732                           ;bb.c: 400:     {;bb.c: 401:         field++;
  3733     00F9  3001               	movlw	1
  3734     00FA  07D3               	addwf	set_time@field,f
  3735     00FB                     l4028:
  3736                           
  3737                           ;bb.c: 402:         if (field > 2)
  3738     00FB  3003               	movlw	3
  3739     00FC  0253               	subwf	set_time@field,w
  3740     00FD  1C03               	skipc
  3741     00FE  2900               	goto	u3621
  3742     00FF  2901               	goto	u3620
  3743     0100                     u3621:
  3744     0100  2902               	goto	l4032
  3745     0101                     u3620:
  3746     0101                     l4030:
  3747                           
  3748                           ;bb.c: 403:             field = 0;
  3749     0101  01D3               	clrf	set_time@field
  3750     0102                     l4032:
  3751                           
  3752                           ;bb.c: 407:     if (key == 0x37)
  3753     0102  3037               	movlw	55
  3754     0103  0630               	xorwf	set_time@key,w
  3755     0104  1D03               	btfss	3,2
  3756     0105  2907               	goto	u3631
  3757     0106  2908               	goto	u3630
  3758     0107                     u3631:
  3759     0107  2961               	goto	l4060
  3760     0108                     u3630:
  3761     0108                     l4034:
  3762                           
  3763                           ;bb.c: 408:     {;bb.c: 409:         edited = 1;
  3764     0108  3001               	movlw	1
  3765     0109  00D2               	movwf	set_time@edited
  3766     010A                     l4036:
  3767                           
  3768                           ;bb.c: 411:         if (field == 0)
  3769     010A  0853               	movf	set_time@field,w
  3770     010B  1D03               	btfss	3,2
  3771     010C  290E               	goto	u3641
  3772     010D  290F               	goto	u3640
  3773     010E                     u3641:
  3774     010E  2927               	goto	l4044
  3775     010F                     u3640:
  3776     010F                     l4038:
  3777                           
  3778                           ;bb.c: 412:         {;bb.c: 413:             sec++;
  3779     010F  3001               	movlw	1
  3780     0110  07BE               	addwf	set_time@sec,f
  3781     0111  1803               	skipnc
  3782     0112  0ABF               	incf	set_time@sec+1,f
  3783     0113  3000               	movlw	0
  3784     0114  07BF               	addwf	set_time@sec+1,f
  3785     0115                     l4040:
  3786                           
  3787                           ;bb.c: 414:             if (sec > 59) sec = 0;
  3788     0115  083F               	movf	set_time@sec+1,w
  3789     0116  3A80               	xorlw	128
  3790     0117  00FF               	movwf	btemp1
  3791     0118  3080               	movlw	128
  3792     0119  027F               	subwf	btemp1,w
  3793     011A  1D03               	skipz
  3794     011B  291E               	goto	u3655
  3795     011C  303C               	movlw	60
  3796     011D  023E               	subwf	set_time@sec,w
  3797     011E                     u3655:
  3798     011E  1C03               	skipc
  3799     011F  2921               	goto	u3651
  3800     0120  2922               	goto	u3650
  3801     0121                     u3651:
  3802     0121  2961               	goto	l4060
  3803     0122                     u3650:
  3804     0122                     l4042:
  3805     0122  1283               	bcf	3,5	;RP0=0, select bank0
  3806     0123  1303               	bcf	3,6	;RP1=0, select bank0
  3807     0124  01BE               	clrf	set_time@sec
  3808     0125  01BF               	clrf	set_time@sec+1
  3809     0126  2961               	goto	l4060
  3810     0127                     l4044:
  3811     0127  0353               	decf	set_time@field,w
  3812     0128  1D03               	btfss	3,2
  3813     0129  292B               	goto	u3661
  3814     012A  292C               	goto	u3660
  3815     012B                     u3661:
  3816     012B  2944               	goto	l4052
  3817     012C                     u3660:
  3818     012C                     l4046:
  3819                           
  3820                           ;bb.c: 417:         {;bb.c: 418:             min++;
  3821     012C  3001               	movlw	1
  3822     012D  07BC               	addwf	set_time@min,f
  3823     012E  1803               	skipnc
  3824     012F  0ABD               	incf	set_time@min+1,f
  3825     0130  3000               	movlw	0
  3826     0131  07BD               	addwf	set_time@min+1,f
  3827     0132                     l4048:
  3828                           
  3829                           ;bb.c: 419:             if (min > 59) min = 0;
  3830     0132  083D               	movf	set_time@min+1,w
  3831     0133  3A80               	xorlw	128
  3832     0134  00FF               	movwf	btemp1
  3833     0135  3080               	movlw	128
  3834     0136  027F               	subwf	btemp1,w
  3835     0137  1D03               	skipz
  3836     0138  293B               	goto	u3675
  3837     0139  303C               	movlw	60
  3838     013A  023C               	subwf	set_time@min,w
  3839     013B                     u3675:
  3840     013B  1C03               	skipc
  3841     013C  293E               	goto	u3671
  3842     013D  293F               	goto	u3670
  3843     013E                     u3671:
  3844     013E  2961               	goto	l4060
  3845     013F                     u3670:
  3846     013F                     l4050:
  3847     013F  1283               	bcf	3,5	;RP0=0, select bank0
  3848     0140  1303               	bcf	3,6	;RP1=0, select bank0
  3849     0141  01BC               	clrf	set_time@min
  3850     0142  01BD               	clrf	set_time@min+1
  3851     0143  2961               	goto	l4060
  3852     0144                     l4052:
  3853     0144  3002               	movlw	2
  3854     0145  0653               	xorwf	set_time@field,w
  3855     0146  1D03               	btfss	3,2
  3856     0147  2949               	goto	u3681
  3857     0148  294A               	goto	u3680
  3858     0149                     u3681:
  3859     0149  2961               	goto	l4060
  3860     014A                     u3680:
  3861     014A                     l4054:
  3862                           
  3863                           ;bb.c: 422:         {;bb.c: 423:             hour++;
  3864     014A  3001               	movlw	1
  3865     014B  07BA               	addwf	set_time@hour,f
  3866     014C  1803               	skipnc
  3867     014D  0ABB               	incf	set_time@hour+1,f
  3868     014E  3000               	movlw	0
  3869     014F  07BB               	addwf	set_time@hour+1,f
  3870     0150                     l4056:
  3871                           
  3872                           ;bb.c: 424:             if (hour > 23) hour = 0;
  3873     0150  083B               	movf	set_time@hour+1,w
  3874     0151  3A80               	xorlw	128
  3875     0152  00FF               	movwf	btemp1
  3876     0153  3080               	movlw	128
  3877     0154  027F               	subwf	btemp1,w
  3878     0155  1D03               	skipz
  3879     0156  2959               	goto	u3695
  3880     0157  3018               	movlw	24
  3881     0158  023A               	subwf	set_time@hour,w
  3882     0159                     u3695:
  3883     0159  1C03               	skipc
  3884     015A  295C               	goto	u3691
  3885     015B  295D               	goto	u3690
  3886     015C                     u3691:
  3887     015C  2961               	goto	l4060
  3888     015D                     u3690:
  3889     015D                     l4058:
  3890     015D  1283               	bcf	3,5	;RP0=0, select bank0
  3891     015E  1303               	bcf	3,6	;RP1=0, select bank0
  3892     015F  01BA               	clrf	set_time@hour
  3893     0160  01BB               	clrf	set_time@hour+1
  3894     0161                     l4060:
  3895                           
  3896                           ;bb.c: 429:     if (key == 0x1F && edited == 1)
  3897     0161  301F               	movlw	31
  3898     0162  1283               	bcf	3,5	;RP0=0, select bank0
  3899     0163  1303               	bcf	3,6	;RP1=0, select bank0
  3900     0164  0630               	xorwf	set_time@key,w
  3901     0165  1D03               	btfss	3,2
  3902     0166  2968               	goto	u3701
  3903     0167  2969               	goto	u3700
  3904     0168                     u3701:
  3905     0168  29D1               	goto	l4078
  3906     0169                     u3700:
  3907     0169                     l4062:
  3908     0169  0352               	decf	set_time@edited,w
  3909     016A  1D03               	btfss	3,2
  3910     016B  296D               	goto	u3711
  3911     016C  296E               	goto	u3710
  3912     016D                     u3711:
  3913     016D  29D1               	goto	l4078
  3914     016E                     u3710:
  3915     016E                     l4064:
  3916                           
  3917                           ;bb.c: 430:     {;bb.c: 431:         i2c_start();
  3918     016E  160A  118A  23CD  120A  118A  	fcall	_i2c_start
  3919                           
  3920                           ;bb.c: 432:         i2c_write(0xD0);
  3921     0173  30D0               	movlw	208
  3922     0174  160A  118A  2424  120A  118A  	fcall	_i2c_write
  3923                           
  3924                           ;bb.c: 433:         i2c_write(0x00);
  3925     0179  3000               	movlw	0
  3926     017A  160A  118A  2424  120A  118A  	fcall	_i2c_write
  3927                           
  3928                           ;bb.c: 435:         i2c_write(dec_to_bcd(sec) & 0x7F);
  3929     017F  1283               	bcf	3,5	;RP0=0, select bank0
  3930     0180  1303               	bcf	3,6	;RP1=0, select bank0
  3931     0181  083E               	movf	set_time@sec,w
  3932     0182  160A  118A  2742  120A  118A  	fcall	_dec_to_bcd
  3933     0187  397F               	andlw	127
  3934     0188  160A  118A  2424  120A  118A  	fcall	_i2c_write
  3935                           
  3936                           ;bb.c: 436:         i2c_write(dec_to_bcd(min));
  3937     018D  1283               	bcf	3,5	;RP0=0, select bank0
  3938     018E  1303               	bcf	3,6	;RP1=0, select bank0
  3939     018F  083C               	movf	set_time@min,w
  3940     0190  160A  118A  2742  120A  118A  	fcall	_dec_to_bcd
  3941     0195  160A  118A  2424  120A  118A  	fcall	_i2c_write
  3942                           
  3943                           ;bb.c: 437:         i2c_write(dec_to_bcd(hour));
  3944     019A  1283               	bcf	3,5	;RP0=0, select bank0
  3945     019B  1303               	bcf	3,6	;RP1=0, select bank0
  3946     019C  083A               	movf	set_time@hour,w
  3947     019D  160A  118A  2742  120A  118A  	fcall	_dec_to_bcd
  3948     01A2  160A  118A  2424  120A  118A  	fcall	_i2c_write
  3949                           
  3950                           ;bb.c: 439:         i2c_stop();
  3951     01A7  160A  118A  23D6  120A  118A  	fcall	_i2c_stop
  3952     01AC                     l4066:
  3953                           
  3954                           ;bb.c: 441:         edited = 0;
  3955     01AC  1283               	bcf	3,5	;RP0=0, select bank0
  3956     01AD  1303               	bcf	3,6	;RP1=0, select bank0
  3957     01AE  01D2               	clrf	set_time@edited
  3958     01AF                     l4068:
  3959                           
  3960                           ;bb.c: 443:         clear_screen();
  3961     01AF  160A  118A  240A  120A  118A  	fcall	_clear_screen
  3962     01B4                     l4070:
  3963                           
  3964                           ;bb.c: 444:         clcd_print("SUCCESSFULL", (0x80 + 0));
  3965     01B4  304F               	movlw	low (STR_34| (0+32768))
  3966     01B5  1283               	bcf	3,5	;RP0=0, select bank0
  3967     01B6  1303               	bcf	3,6	;RP1=0, select bank0
  3968     01B7  00A0               	movwf	clcd_print@str
  3969     01B8  3086               	movlw	high (STR_34| (0+32768))
  3970     01B9  00A1               	movwf	clcd_print@str+1
  3971     01BA  3080               	movlw	128
  3972     01BB  00A2               	movwf	clcd_print@addr
  3973     01BC  160A  118A  2675  120A  118A  	fcall	_clcd_print
  3974     01C1                     l4072:
  3975                           
  3976                           ;bb.c: 445:         _delay((unsigned long)((2000)*(20000000/4000.0)));
  3977     01C1  3033               	movlw	51
  3978     01C2  1283               	bcf	3,5	;RP0=0, select bank0
  3979     01C3  1303               	bcf	3,6	;RP1=0, select bank0
  3980     01C4  00AE               	movwf	??_set_time+2
  3981     01C5  30BB               	movlw	187
  3982     01C6  00AD               	movwf	??_set_time+1
  3983     01C7  30DF               	movlw	223
  3984     01C8  00AC               	movwf	??_set_time
  3985     01C9                     u4017:
  3986     01C9  0BAC               	decfsz	??_set_time,f
  3987     01CA  29C9               	goto	u4017
  3988     01CB  0BAD               	decfsz	??_set_time+1,f
  3989     01CC  29C9               	goto	u4017
  3990     01CD  0BAE               	decfsz	??_set_time+2,f
  3991     01CE  29C9               	goto	u4017
  3992     01CF                     l4074:
  3993                           
  3994                           ;bb.c: 446:         return 0x07;
  3995     01CF  3007               	movlw	7
  3996     01D0  2ACE               	goto	l313
  3997     01D1                     l4078:
  3998                           
  3999                           ;bb.c: 450:     hh[0] = (hour / 10) + '0';
  4000     01D1  300A               	movlw	10
  4001     01D2  00F2               	movwf	___awdiv@divisor
  4002     01D3  3000               	movlw	0
  4003     01D4  00F3               	movwf	___awdiv@divisor+1
  4004     01D5  083B               	movf	set_time@hour+1,w
  4005     01D6  00F5               	movwf	___awdiv@dividend+1
  4006     01D7  083A               	movf	set_time@hour,w
  4007     01D8  00F4               	movwf	___awdiv@dividend
  4008     01D9  120A  158A  221B  120A  118A  	fcall	___awdiv
  4009     01DE  0872               	movf	?___awdiv,w
  4010     01DF  3E30               	addlw	48
  4011     01E0  1283               	bcf	3,5	;RP0=0, select bank0
  4012     01E1  1303               	bcf	3,6	;RP1=0, select bank0
  4013     01E2  00B1               	movwf	set_time@hh
  4014                           
  4015                           ;bb.c: 451:     hh[1] = (hour % 10) + '0';
  4016     01E3  300A               	movlw	10
  4017     01E4  00F2               	movwf	___awmod@divisor
  4018     01E5  3000               	movlw	0
  4019     01E6  00F3               	movwf	___awmod@divisor+1
  4020     01E7  083B               	movf	set_time@hour+1,w
  4021     01E8  00F5               	movwf	___awmod@dividend+1
  4022     01E9  083A               	movf	set_time@hour,w
  4023     01EA  00F4               	movwf	___awmod@dividend
  4024     01EB  120A  158A  21C4  120A  118A  	fcall	___awmod
  4025     01F0  0872               	movf	?___awmod,w
  4026     01F1  3E30               	addlw	48
  4027     01F2  1283               	bcf	3,5	;RP0=0, select bank0
  4028     01F3  1303               	bcf	3,6	;RP1=0, select bank0
  4029     01F4  00B2               	movwf	set_time@hh+1
  4030                           
  4031                           ;bb.c: 453:     mm[0] = (min / 10) + '0';
  4032     01F5  300A               	movlw	10
  4033     01F6  00F2               	movwf	___awdiv@divisor
  4034     01F7  3000               	movlw	0
  4035     01F8  00F3               	movwf	___awdiv@divisor+1
  4036     01F9  083D               	movf	set_time@min+1,w
  4037     01FA  00F5               	movwf	___awdiv@dividend+1
  4038     01FB  083C               	movf	set_time@min,w
  4039     01FC  00F4               	movwf	___awdiv@dividend
  4040     01FD  120A  158A  221B  120A  118A  	fcall	___awdiv
  4041     0202  0872               	movf	?___awdiv,w
  4042     0203  3E30               	addlw	48
  4043     0204  1283               	bcf	3,5	;RP0=0, select bank0
  4044     0205  1303               	bcf	3,6	;RP1=0, select bank0
  4045     0206  00B4               	movwf	set_time@mm
  4046                           
  4047                           ;bb.c: 454:     mm[1] = (min % 10) + '0';
  4048     0207  300A               	movlw	10
  4049     0208  00F2               	movwf	___awmod@divisor
  4050     0209  3000               	movlw	0
  4051     020A  00F3               	movwf	___awmod@divisor+1
  4052     020B  083D               	movf	set_time@min+1,w
  4053     020C  00F5               	movwf	___awmod@dividend+1
  4054     020D  083C               	movf	set_time@min,w
  4055     020E  00F4               	movwf	___awmod@dividend
  4056     020F  120A  158A  21C4  120A  118A  	fcall	___awmod
  4057     0214  0872               	movf	?___awmod,w
  4058     0215  3E30               	addlw	48
  4059     0216  1283               	bcf	3,5	;RP0=0, select bank0
  4060     0217  1303               	bcf	3,6	;RP1=0, select bank0
  4061     0218  00B5               	movwf	set_time@mm+1
  4062                           
  4063                           ;bb.c: 456:     ss[0] = (sec / 10) + '0';
  4064     0219  300A               	movlw	10
  4065     021A  00F2               	movwf	___awdiv@divisor
  4066     021B  3000               	movlw	0
  4067     021C  00F3               	movwf	___awdiv@divisor+1
  4068     021D  083F               	movf	set_time@sec+1,w
  4069     021E  00F5               	movwf	___awdiv@dividend+1
  4070     021F  083E               	movf	set_time@sec,w
  4071     0220  00F4               	movwf	___awdiv@dividend
  4072     0221  120A  158A  221B  120A  118A  	fcall	___awdiv
  4073     0226  0872               	movf	?___awdiv,w
  4074     0227  3E30               	addlw	48
  4075     0228  1283               	bcf	3,5	;RP0=0, select bank0
  4076     0229  1303               	bcf	3,6	;RP1=0, select bank0
  4077     022A  00B7               	movwf	set_time@ss
  4078                           
  4079                           ;bb.c: 457:     ss[1] = (sec % 10) + '0';
  4080     022B  300A               	movlw	10
  4081     022C  00F2               	movwf	___awmod@divisor
  4082     022D  3000               	movlw	0
  4083     022E  00F3               	movwf	___awmod@divisor+1
  4084     022F  083F               	movf	set_time@sec+1,w
  4085     0230  00F5               	movwf	___awmod@dividend+1
  4086     0231  083E               	movf	set_time@sec,w
  4087     0232  00F4               	movwf	___awmod@dividend
  4088     0233  120A  158A  21C4  120A  118A  	fcall	___awmod
  4089     0238  0872               	movf	?___awmod,w
  4090     0239  3E30               	addlw	48
  4091     023A  1283               	bcf	3,5	;RP0=0, select bank0
  4092     023B  1303               	bcf	3,6	;RP1=0, select bank0
  4093     023C  00B8               	movwf	set_time@ss+1
  4094     023D                     l4080:
  4095                           
  4096                           ;bb.c: 459:     time[0] = hh[0]; time[1] = hh[1];
  4097     023D  0831               	movf	set_time@hh,w
  4098     023E  00DD               	movwf	_time
  4099     023F                     l4082:
  4100     023F  0832               	movf	set_time@hh+1,w
  4101     0240  00DE               	movwf	_time+1
  4102     0241                     l4084:
  4103                           
  4104                           ;bb.c: 460:     time[2] = mm[0]; time[3] = mm[1];
  4105     0241  0834               	movf	set_time@mm,w
  4106     0242  00DF               	movwf	_time+2
  4107     0243                     l4086:
  4108     0243  0835               	movf	set_time@mm+1,w
  4109     0244  00E0               	movwf	_time+3
  4110     0245                     l4088:
  4111                           
  4112                           ;bb.c: 461:     time[4] = ss[0]; time[5] = ss[1];
  4113     0245  0837               	movf	set_time@ss,w
  4114     0246  00E1               	movwf	_time+4
  4115     0247                     l4090:
  4116     0247  0838               	movf	set_time@ss+1,w
  4117     0248  00E2               	movwf	_time+5
  4118     0249                     l4092:
  4119                           
  4120                           ;bb.c: 464:     clcd_print("TIME  (HH:MM:SS)", (0x80 + 3));
  4121     0249  3062               	movlw	low (STR_35| (0+32768))
  4122     024A  00A0               	movwf	clcd_print@str
  4123     024B  3085               	movlw	high (STR_35| (0+32768))
  4124     024C  00A1               	movwf	clcd_print@str+1
  4125     024D  3083               	movlw	131
  4126     024E  00A2               	movwf	clcd_print@addr
  4127     024F  160A  118A  2675  120A  118A  	fcall	_clcd_print
  4128     0254                     l4094:
  4129                           
  4130                           ;bb.c: 467:     if (field == 2 && !blink)
  4131     0254  3002               	movlw	2
  4132     0255  1283               	bcf	3,5	;RP0=0, select bank0
  4133     0256  1303               	bcf	3,6	;RP1=0, select bank0
  4134     0257  0653               	xorwf	set_time@field,w
  4135     0258  1D03               	btfss	3,2
  4136     0259  2A5B               	goto	u3721
  4137     025A  2A5C               	goto	u3720
  4138     025B                     u3721:
  4139     025B  2A6D               	goto	l4100
  4140     025C                     u3720:
  4141     025C                     l4096:
  4142     025C  0858               	movf	_blink,w	;volatile
  4143     025D  1D03               	btfss	3,2
  4144     025E  2A60               	goto	u3731
  4145     025F  2A61               	goto	u3730
  4146     0260                     u3731:
  4147     0260  2A6D               	goto	l4100
  4148     0261                     u3730:
  4149     0261                     l4098:
  4150                           
  4151                           ;bb.c: 468:         clcd_print("  ", (0xC0 + 0));
  4152     0261  3088               	movlw	low (STR_36| (0+32768))
  4153     0262  00A0               	movwf	clcd_print@str
  4154     0263  3086               	movlw	high (STR_36| (0+32768))
  4155     0264  00A1               	movwf	clcd_print@str+1
  4156     0265  30C0               	movlw	192
  4157     0266  00A2               	movwf	clcd_print@addr
  4158     0267  160A  118A  2675  120A  118A  	fcall	_clcd_print
  4159     026C  2A78               	goto	l4102
  4160     026D                     l4100:
  4161                           
  4162                           ;bb.c: 470:         clcd_print(hh, (0xC0 + 0));
  4163     026D  3031               	movlw	(low (set_time@hh| 0))& (0+255)
  4164     026E  00A0               	movwf	clcd_print@str
  4165     026F  3000               	movlw	0
  4166     0270  00A1               	movwf	clcd_print@str+1
  4167     0271  30C0               	movlw	192
  4168     0272  00A2               	movwf	clcd_print@addr
  4169     0273  160A  118A  2675  120A  118A  	fcall	_clcd_print
  4170     0278                     l4102:
  4171                           
  4172                           ;bb.c: 472:     clcd_putch(':', (0xC0 + 3));
  4173     0278  30C3               	movlw	195
  4174     0279  00F8               	movwf	clcd_putch@addr
  4175     027A  303A               	movlw	58
  4176     027B  160A  118A  248C  120A  118A  	fcall	_clcd_putch
  4177     0280                     l4104:
  4178                           
  4179                           ;bb.c: 475:     if (field == 1 && !blink)
  4180     0280  1283               	bcf	3,5	;RP0=0, select bank0
  4181     0281  1303               	bcf	3,6	;RP1=0, select bank0
  4182     0282  0353               	decf	set_time@field,w
  4183     0283  1D03               	btfss	3,2
  4184     0284  2A86               	goto	u3741
  4185     0285  2A87               	goto	u3740
  4186     0286                     u3741:
  4187     0286  2A98               	goto	l4110
  4188     0287                     u3740:
  4189     0287                     l4106:
  4190     0287  0858               	movf	_blink,w	;volatile
  4191     0288  1D03               	btfss	3,2
  4192     0289  2A8B               	goto	u3751
  4193     028A  2A8C               	goto	u3750
  4194     028B                     u3751:
  4195     028B  2A98               	goto	l4110
  4196     028C                     u3750:
  4197     028C                     l4108:
  4198                           
  4199                           ;bb.c: 476:         clcd_print("  ", (0xC0 + 5));
  4200     028C  3088               	movlw	low (STR_36| (0+32768))
  4201     028D  00A0               	movwf	clcd_print@str
  4202     028E  3086               	movlw	high (STR_36| (0+32768))
  4203     028F  00A1               	movwf	clcd_print@str+1
  4204     0290  30C5               	movlw	197
  4205     0291  00A2               	movwf	clcd_print@addr
  4206     0292  160A  118A  2675  120A  118A  	fcall	_clcd_print
  4207     0297  2AA3               	goto	l4112
  4208     0298                     l4110:
  4209                           
  4210                           ;bb.c: 478:         clcd_print(mm, (0xC0 + 5));
  4211     0298  3034               	movlw	(low (set_time@mm| 0))& (0+255)
  4212     0299  00A0               	movwf	clcd_print@str
  4213     029A  3000               	movlw	0
  4214     029B  00A1               	movwf	clcd_print@str+1
  4215     029C  30C5               	movlw	197
  4216     029D  00A2               	movwf	clcd_print@addr
  4217     029E  160A  118A  2675  120A  118A  	fcall	_clcd_print
  4218     02A3                     l4112:
  4219                           
  4220                           ;bb.c: 480:     clcd_putch(':', (0xC0 + 8));
  4221     02A3  30C8               	movlw	200
  4222     02A4  00F8               	movwf	clcd_putch@addr
  4223     02A5  303A               	movlw	58
  4224     02A6  160A  118A  248C  120A  118A  	fcall	_clcd_putch
  4225     02AB                     l4114:
  4226                           
  4227                           ;bb.c: 483:     if (field == 0 && !blink)
  4228     02AB  1283               	bcf	3,5	;RP0=0, select bank0
  4229     02AC  1303               	bcf	3,6	;RP1=0, select bank0
  4230     02AD  0853               	movf	set_time@field,w
  4231     02AE  1D03               	btfss	3,2
  4232     02AF  2AB1               	goto	u3761
  4233     02B0  2AB2               	goto	u3760
  4234     02B1                     u3761:
  4235     02B1  2AC3               	goto	l4120
  4236     02B2                     u3760:
  4237     02B2                     l4116:
  4238     02B2  0858               	movf	_blink,w	;volatile
  4239     02B3  1D03               	btfss	3,2
  4240     02B4  2AB6               	goto	u3771
  4241     02B5  2AB7               	goto	u3770
  4242     02B6                     u3771:
  4243     02B6  2AC3               	goto	l4120
  4244     02B7                     u3770:
  4245     02B7                     l4118:
  4246                           
  4247                           ;bb.c: 484:         clcd_print("  ", (0xC0 + 10));
  4248     02B7  3088               	movlw	low (STR_36| (0+32768))
  4249     02B8  00A0               	movwf	clcd_print@str
  4250     02B9  3086               	movlw	high (STR_36| (0+32768))
  4251     02BA  00A1               	movwf	clcd_print@str+1
  4252     02BB  30CA               	movlw	202
  4253     02BC  00A2               	movwf	clcd_print@addr
  4254     02BD  160A  118A  2675  120A  118A  	fcall	_clcd_print
  4255     02C2  2ACE               	goto	l313
  4256     02C3                     l4120:
  4257                           
  4258                           ;bb.c: 486:         clcd_print(ss, (0xC0 + 10));
  4259     02C3  3037               	movlw	(low (set_time@ss| 0))& (0+255)
  4260     02C4  00A0               	movwf	clcd_print@str
  4261     02C5  3000               	movlw	0
  4262     02C6  00A1               	movwf	clcd_print@str+1
  4263     02C7  30CA               	movlw	202
  4264     02C8  00A2               	movwf	clcd_print@addr
  4265     02C9  160A  118A  2675  120A  118A  	fcall	_clcd_print
  4266     02CE                     l313:
  4267     02CE  0008               	return
  4268     02CF                     __end_of_set_time:
  4269                           
  4270                           	psect	text4
  4271     1742                     __ptext4:	
  4272 ;; *************** function _dec_to_bcd *****************
  4273 ;; Defined at:
  4274 ;;		line 350 in file "bb.c"
  4275 ;; Parameters:    Size  Location     Type
  4276 ;;  val             1    wreg     unsigned char 
  4277 ;; Auto vars:     Size  Location     Type
  4278 ;;  val             1    8[COMMON] unsigned char 
  4279 ;; Return value:  Size  Location     Type
  4280 ;;                  1    wreg      unsigned char 
  4281 ;; Registers used:
  4282 ;;		wreg, status,2, status,0, pclath, cstack
  4283 ;; Tracked objects:
  4284 ;;		On entry : 0/0
  4285 ;;		On exit  : 0/0
  4286 ;;		Unchanged: 0/0
  4287 ;; Data sizes:     COMMON   BANK0   BANK1   BANK3   BANK2
  4288 ;;      Params:         0       0       0       0       0
  4289 ;;      Locals:         1       0       0       0       0
  4290 ;;      Temps:          0       7       0       0       0
  4291 ;;      Totals:         1       7       0       0       0
  4292 ;;Total ram usage:        8 bytes
  4293 ;; Hardware stack levels used: 1
  4294 ;; Hardware stack levels required when called: 2
  4295 ;; This function calls:
  4296 ;;		___awdiv
  4297 ;;		___awmod
  4298 ;; This function is called by:
  4299 ;;		_set_time
  4300 ;; This function uses a non-reentrant model
  4301 ;;
  4302                           
  4303     1742                     _dec_to_bcd:	
  4304                           ;psect for function _dec_to_bcd
  4305                           
  4306                           
  4307                           ;incstack = 0
  4308                           ; Regs used in _dec_to_bcd: [wreg+status,2+status,0+pclath+cstack]
  4309                           ;dec_to_bcd@val stored from wreg
  4310     1742  00F8               	movwf	dec_to_bcd@val
  4311     1743                     l3626:
  4312                           
  4313                           ;bb.c: 350: unsigned char dec_to_bcd(unsigned char val);bb.c: 351: {;bb.c: 352:     retu
      +                          rn ((val / 10) << 4) | (val % 10);
  4314     1743  300A               	movlw	10
  4315     1744  00F2               	movwf	___awmod@divisor
  4316     1745  3000               	movlw	0
  4317     1746  00F3               	movwf	___awmod@divisor+1
  4318     1747  0878               	movf	dec_to_bcd@val,w
  4319     1748  1283               	bcf	3,5	;RP0=0, select bank0
  4320     1749  1303               	bcf	3,6	;RP1=0, select bank0
  4321     174A  00A4               	movwf	??_dec_to_bcd
  4322     174B  01A5               	clrf	??_dec_to_bcd+1
  4323     174C  0824               	movf	??_dec_to_bcd,w
  4324     174D  00F4               	movwf	___awmod@dividend
  4325     174E  0825               	movf	??_dec_to_bcd+1,w
  4326     174F  00F5               	movwf	___awmod@dividend+1
  4327     1750  120A  158A  21C4  160A  118A  	fcall	___awmod
  4328     1755  0872               	movf	?___awmod,w
  4329     1756  1283               	bcf	3,5	;RP0=0, select bank0
  4330     1757  1303               	bcf	3,6	;RP1=0, select bank0
  4331     1758  00A6               	movwf	??_dec_to_bcd+2
  4332     1759  0873               	movf	?___awmod+1,w
  4333     175A  00A7               	movwf	??_dec_to_bcd+3
  4334     175B  300A               	movlw	10
  4335     175C  00F2               	movwf	___awdiv@divisor
  4336     175D  3000               	movlw	0
  4337     175E  00F3               	movwf	___awdiv@divisor+1
  4338     175F  0878               	movf	dec_to_bcd@val,w
  4339     1760  00A8               	movwf	??_dec_to_bcd+4
  4340     1761  01A9               	clrf	??_dec_to_bcd+5
  4341     1762  0828               	movf	??_dec_to_bcd+4,w
  4342     1763  00F4               	movwf	___awdiv@dividend
  4343     1764  0829               	movf	??_dec_to_bcd+5,w
  4344     1765  00F5               	movwf	___awdiv@dividend+1
  4345     1766  120A  158A  221B  160A  118A  	fcall	___awdiv
  4346     176B  0872               	movf	?___awdiv,w
  4347     176C  1283               	bcf	3,5	;RP0=0, select bank0
  4348     176D  1303               	bcf	3,6	;RP1=0, select bank0
  4349     176E  00AA               	movwf	??_dec_to_bcd+6
  4350     176F  3003               	movlw	3
  4351     1770                     u3225:
  4352     1770  1003               	clrc
  4353     1771  0DAA               	rlf	??_dec_to_bcd+6,f
  4354     1772  3EFF               	addlw	-1
  4355     1773  1D03               	skipz
  4356     1774  2F70               	goto	u3225
  4357     1775  1003               	clrc
  4358     1776  0D2A               	rlf	??_dec_to_bcd+6,w
  4359     1777  0426               	iorwf	??_dec_to_bcd+2,w
  4360     1778                     l289:
  4361     1778  0008               	return
  4362     1779                     __end_of_dec_to_bcd:
  4363                           
  4364                           	psect	text5
  4365     1544                     __ptext5:	
  4366 ;; *************** function ___wmul *****************
  4367 ;; Defined at:
  4368 ;;		line 15 in file "E:\embeded Sof\pic\sources\c99\common\Umul16.c"
  4369 ;; Parameters:    Size  Location     Type
  4370 ;;  multiplier      2    2[COMMON] unsigned int 
  4371 ;;  multiplicand    2    4[COMMON] unsigned int 
  4372 ;; Auto vars:     Size  Location     Type
  4373 ;;  product         2    6[COMMON] unsigned int 
  4374 ;; Return value:  Size  Location     Type
  4375 ;;                  2    2[COMMON] unsigned int 
  4376 ;; Registers used:
  4377 ;;		wreg, status,2, status,0
  4378 ;; Tracked objects:
  4379 ;;		On entry : 0/0
  4380 ;;		On exit  : 0/0
  4381 ;;		Unchanged: 0/0
  4382 ;; Data sizes:     COMMON   BANK0   BANK1   BANK3   BANK2
  4383 ;;      Params:         4       0       0       0       0
  4384 ;;      Locals:         2       0       0       0       0
  4385 ;;      Temps:          0       0       0       0       0
  4386 ;;      Totals:         6       0       0       0       0
  4387 ;;Total ram usage:        6 bytes
  4388 ;; Hardware stack levels used: 1
  4389 ;; Hardware stack levels required when called: 1
  4390 ;; This function calls:
  4391 ;;		Nothing
  4392 ;; This function is called by:
  4393 ;;		_set_time
  4394 ;; This function uses a non-reentrant model
  4395 ;;
  4396                           
  4397     1544                     ___wmul:	
  4398                           ;psect for function ___wmul
  4399                           
  4400     1544                     l2666:	
  4401                           ;incstack = 0
  4402                           ; Regs used in ___wmul: [wreg+status,2+status,0]
  4403                           
  4404     1544  01F6               	clrf	___wmul@product
  4405     1545  01F7               	clrf	___wmul@product+1
  4406     1546                     l2668:
  4407     1546  1C72               	btfss	___wmul@multiplier,0
  4408     1547  2D49               	goto	u2021
  4409     1548  2D4A               	goto	u2020
  4410     1549                     u2021:
  4411     1549  2D50               	goto	l667
  4412     154A                     u2020:
  4413     154A                     l2670:
  4414     154A  0874               	movf	___wmul@multiplicand,w
  4415     154B  07F6               	addwf	___wmul@product,f
  4416     154C  1803               	skipnc
  4417     154D  0AF7               	incf	___wmul@product+1,f
  4418     154E  0875               	movf	___wmul@multiplicand+1,w
  4419     154F  07F7               	addwf	___wmul@product+1,f
  4420     1550                     l667:
  4421     1550  3001               	movlw	1
  4422     1551                     u2035:
  4423     1551  1003               	clrc
  4424     1552  0DF4               	rlf	___wmul@multiplicand,f
  4425     1553  0DF5               	rlf	___wmul@multiplicand+1,f
  4426     1554  3EFF               	addlw	-1
  4427     1555  1D03               	skipz
  4428     1556  2D51               	goto	u2035
  4429     1557                     l2672:
  4430     1557  3001               	movlw	1
  4431     1558                     u2045:
  4432     1558  1003               	clrc
  4433     1559  0CF3               	rrf	___wmul@multiplier+1,f
  4434     155A  0CF2               	rrf	___wmul@multiplier,f
  4435     155B  3EFF               	addlw	-1
  4436     155C  1D03               	skipz
  4437     155D  2D58               	goto	u2045
  4438     155E                     l2674:
  4439     155E  0872               	movf	___wmul@multiplier,w
  4440     155F  0473               	iorwf	___wmul@multiplier+1,w
  4441     1560  1D03               	btfss	3,2
  4442     1561  2D63               	goto	u2051
  4443     1562  2D64               	goto	u2050
  4444     1563                     u2051:
  4445     1563  2D46               	goto	l2668
  4446     1564                     u2050:
  4447     1564                     l2676:
  4448     1564  0877               	movf	___wmul@product+1,w
  4449     1565  00F3               	movwf	?___wmul+1
  4450     1566  0876               	movf	___wmul@product,w
  4451     1567  00F2               	movwf	?___wmul
  4452     1568                     l669:
  4453     1568  0008               	return
  4454     1569                     __end_of___wmul:
  4455                           
  4456                           	psect	text6
  4457     15B7                     __ptext6:	
  4458 ;; *************** function _read_digital_keypad *****************
  4459 ;; Defined at:
  4460 ;;		line 11 in file "digi.c"
  4461 ;; Parameters:    Size  Location     Type
  4462 ;;  mode            1    wreg     unsigned char 
  4463 ;; Auto vars:     Size  Location     Type
  4464 ;;  mode            1    3[COMMON] unsigned char 
  4465 ;; Return value:  Size  Location     Type
  4466 ;;                  1    wreg      unsigned char 
  4467 ;; Registers used:
  4468 ;;		wreg, status,2, status,0
  4469 ;; Tracked objects:
  4470 ;;		On entry : 0/0
  4471 ;;		On exit  : 0/0
  4472 ;;		Unchanged: 0/0
  4473 ;; Data sizes:     COMMON   BANK0   BANK1   BANK3   BANK2
  4474 ;;      Params:         0       0       0       0       0
  4475 ;;      Locals:         1       0       0       0       0
  4476 ;;      Temps:          1       0       0       0       0
  4477 ;;      Totals:         2       0       0       0       0
  4478 ;;Total ram usage:        2 bytes
  4479 ;; Hardware stack levels used: 1
  4480 ;; Hardware stack levels required when called: 1
  4481 ;; This function calls:
  4482 ;;		Nothing
  4483 ;; This function is called by:
  4484 ;;		_main
  4485 ;; This function uses a non-reentrant model
  4486 ;;
  4487                           
  4488     15B7                     _read_digital_keypad:	
  4489                           ;psect for function _read_digital_keypad
  4490                           
  4491                           
  4492                           ;incstack = 0
  4493                           ; Regs used in _read_digital_keypad: [wreg+status,2+status,0]
  4494                           ;read_digital_keypad@mode stored from wreg
  4495     15B7  00F3               	movwf	read_digital_keypad@mode
  4496     15B8                     l2712:
  4497                           
  4498                           ;digi.c: 11: unsigned char read_digital_keypad(unsigned char mode);digi.c: 12: {;digi.c:
      +                           13:     static unsigned char once = 1;;digi.c: 15:     if (mode == 0)
  4499     15B8  0873               	movf	read_digital_keypad@mode,w
  4500     15B9  1D03               	btfss	3,2
  4501     15BA  2DBC               	goto	u2081
  4502     15BB  2DBD               	goto	u2080
  4503     15BC                     u2081:
  4504     15BC  2DC2               	goto	l2720
  4505     15BD                     u2080:
  4506     15BD                     l2714:
  4507                           
  4508                           ;digi.c: 16:     {;digi.c: 17:         return PORTB & 0x3F;
  4509     15BD  1283               	bcf	3,5	;RP0=0, select bank0
  4510     15BE  1303               	bcf	3,6	;RP1=0, select bank0
  4511     15BF  0806               	movf	6,w	;volatile
  4512     15C0  393F               	andlw	63
  4513     15C1  2DE0               	goto	l476
  4514     15C2                     l2720:
  4515                           
  4516                           ;digi.c: 20:     {;digi.c: 21:         if (((PORTB & 0x3F) != 0x3F) && once)
  4517     15C2  303F               	movlw	63
  4518     15C3  1283               	bcf	3,5	;RP0=0, select bank0
  4519     15C4  1303               	bcf	3,6	;RP1=0, select bank0
  4520     15C5  0506               	andwf	6,w	;volatile
  4521     15C6  00F2               	movwf	??_read_digital_keypad
  4522     15C7  303F               	movlw	63
  4523     15C8  0672               	xorwf	??_read_digital_keypad,w
  4524     15C9  1903               	btfsc	3,2
  4525     15CA  2DCC               	goto	u2091
  4526     15CB  2DCD               	goto	u2090
  4527     15CC                     u2091:
  4528     15CC  2DD4               	goto	l2732
  4529     15CD                     u2090:
  4530     15CD                     l2722:
  4531     15CD  087B               	movf	read_digital_keypad@once,w
  4532     15CE  1903               	btfsc	3,2
  4533     15CF  2DD1               	goto	u2101
  4534     15D0  2DD2               	goto	u2100
  4535     15D1                     u2101:
  4536     15D1  2DD4               	goto	l2732
  4537     15D2                     u2100:
  4538     15D2                     l2724:
  4539                           
  4540                           ;digi.c: 22:         {;digi.c: 23:             once = 0;
  4541     15D2  01FB               	clrf	read_digital_keypad@once
  4542     15D3  2DBD               	goto	l2714
  4543     15D4                     l2732:
  4544     15D4  303F               	movlw	63
  4545     15D5  0506               	andwf	6,w	;volatile
  4546     15D6  00F2               	movwf	??_read_digital_keypad
  4547     15D7  303F               	movlw	63
  4548     15D8  0672               	xorwf	??_read_digital_keypad,w
  4549     15D9  1D03               	btfss	3,2
  4550     15DA  2DDC               	goto	u2111
  4551     15DB  2DDD               	goto	u2110
  4552     15DC                     u2111:
  4553     15DC  2DDF               	goto	l2736
  4554     15DD                     u2110:
  4555     15DD                     l2734:
  4556                           
  4557                           ;digi.c: 28:         {;digi.c: 29:             once = 1;
  4558     15DD  3001               	movlw	1
  4559     15DE  00FB               	movwf	read_digital_keypad@once
  4560     15DF                     l2736:
  4561                           
  4562                           ;digi.c: 33:     return 0x3F;
  4563     15DF  303F               	movlw	63
  4564     15E0                     l476:
  4565     15E0  0008               	return
  4566     15E1                     __end_of_read_digital_keypad:
  4567                           
  4568                           	psect	text7
  4569     0C38                     __ptext7:	
  4570 ;; *************** function _login_menu *****************
  4571 ;; Defined at:
  4572 ;;		line 155 in file "bb.c"
  4573 ;; Parameters:    Size  Location     Type
  4574 ;;  key             1    wreg     unsigned char 
  4575 ;; Auto vars:     Size  Location     Type
  4576 ;;  key             1   11[BANK0 ] unsigned char 
  4577 ;; Return value:  Size  Location     Type
  4578 ;;                  1    wreg      unsigned char 
  4579 ;; Registers used:
  4580 ;;		wreg, fsr0l, fsr0h, status,2, status,0, pclath, btemp1, cstack
  4581 ;; Tracked objects:
  4582 ;;		On entry : 0/0
  4583 ;;		On exit  : 0/0
  4584 ;;		Unchanged: 0/0
  4585 ;; Data sizes:     COMMON   BANK0   BANK1   BANK3   BANK2
  4586 ;;      Params:         0       0       0       0       0
  4587 ;;      Locals:         0       5       0       0       0
  4588 ;;      Temps:          0       2       0       0       0
  4589 ;;      Totals:         0       7       0       0       0
  4590 ;;Total ram usage:        7 bytes
  4591 ;; Hardware stack levels used: 1
  4592 ;; Hardware stack levels required when called: 2
  4593 ;; This function calls:
  4594 ;;		_clcd_print
  4595 ;;		_clcd_putch
  4596 ;;		_clear_screen
  4597 ;; This function is called by:
  4598 ;;		_main
  4599 ;; This function uses a non-reentrant model
  4600 ;;
  4601                           
  4602     0C38                     _login_menu:	
  4603                           ;psect for function _login_menu
  4604                           
  4605                           
  4606                           ;incstack = 0
  4607                           ; Regs used in _login_menu: [wreg-fsr0h+status,2+status,0+pclath+btemp1+cstack]
  4608                           ;login_menu@key stored from wreg
  4609     0C38  1283               	bcf	3,5	;RP0=0, select bank0
  4610     0C39  1303               	bcf	3,6	;RP1=0, select bank0
  4611     0C3A  00AB               	movwf	login_menu@key
  4612     0C3B                     l3784:
  4613                           
  4614                           ;bb.c: 155:  char login_menu(unsigned char key);bb.c: 156: {;bb.c: 157:     static unsig
      +                          ned char menu_pos = 0;;bb.c: 158:     static unsigned char pos = 0;;bb.c: 160:     if (k
      +                          ey == 0x2F)
  4615     0C3B  302F               	movlw	47
  4616     0C3C  062B               	xorwf	login_menu@key,w
  4617     0C3D  1D03               	btfss	3,2
  4618     0C3E  2C40               	goto	u3361
  4619     0C3F  2C41               	goto	u3360
  4620     0C40                     u3361:
  4621     0C40  2C57               	goto	l3796
  4622     0C41                     u3360:
  4623     0C41                     l3786:
  4624                           
  4625                           ;bb.c: 161:     {;bb.c: 162:         if (pos < 1)
  4626     0C41  0854               	movf	login_menu@pos,w
  4627     0C42  1D03               	btfss	3,2
  4628     0C43  2C45               	goto	u3371
  4629     0C44  2C46               	goto	u3370
  4630     0C45                     u3371:
  4631     0C45  2C49               	goto	l3790
  4632     0C46                     u3370:
  4633     0C46                     l3788:
  4634                           
  4635                           ;bb.c: 163:         {;bb.c: 164:             pos++;
  4636     0C46  3001               	movlw	1
  4637     0C47  07D4               	addwf	login_menu@pos,f
  4638                           
  4639                           ;bb.c: 165:         }
  4640     0C48  2C51               	goto	l3794
  4641     0C49                     l3790:
  4642     0C49  3003               	movlw	3
  4643     0C4A  0255               	subwf	login_menu@menu_pos,w
  4644     0C4B  1803               	skipnc
  4645     0C4C  2C4E               	goto	u3381
  4646     0C4D  2C4F               	goto	u3380
  4647     0C4E                     u3381:
  4648     0C4E  2C51               	goto	l3794
  4649     0C4F                     u3380:
  4650     0C4F                     l3792:
  4651                           
  4652                           ;bb.c: 167:         {;bb.c: 168:             menu_pos++;
  4653     0C4F  3001               	movlw	1
  4654     0C50  07D5               	addwf	login_menu@menu_pos,f
  4655     0C51                     l3794:
  4656                           
  4657                           ;bb.c: 170:          clear_screen();
  4658     0C51  160A  118A  240A  120A  158A  	fcall	_clear_screen
  4659                           
  4660                           ;bb.c: 171:     }
  4661     0C56  2C6D               	goto	l3808
  4662     0C57                     l3796:
  4663     0C57  3037               	movlw	55
  4664     0C58  062B               	xorwf	login_menu@key,w
  4665     0C59  1D03               	btfss	3,2
  4666     0C5A  2C5C               	goto	u3391
  4667     0C5B  2C5D               	goto	u3390
  4668     0C5C                     u3391:
  4669     0C5C  2C6D               	goto	l3808
  4670     0C5D                     u3390:
  4671     0C5D                     l3798:
  4672                           
  4673                           ;bb.c: 173:     {;bb.c: 174:         if (pos > 0)
  4674     0C5D  0854               	movf	login_menu@pos,w
  4675     0C5E  1903               	btfsc	3,2
  4676     0C5F  2C61               	goto	u3401
  4677     0C60  2C62               	goto	u3400
  4678     0C61                     u3401:
  4679     0C61  2C65               	goto	l3802
  4680     0C62                     u3400:
  4681     0C62                     l3800:
  4682                           
  4683                           ;bb.c: 175:         {;bb.c: 176:             pos--;
  4684     0C62  3001               	movlw	1
  4685     0C63  02D4               	subwf	login_menu@pos,f
  4686                           
  4687                           ;bb.c: 177:         }
  4688     0C64  2C51               	goto	l3794
  4689     0C65                     l3802:
  4690     0C65  0855               	movf	login_menu@menu_pos,w
  4691     0C66  1903               	btfsc	3,2
  4692     0C67  2C69               	goto	u3411
  4693     0C68  2C6A               	goto	u3410
  4694     0C69                     u3411:
  4695     0C69  2C51               	goto	l3794
  4696     0C6A                     u3410:
  4697     0C6A                     l3804:
  4698                           
  4699                           ;bb.c: 179:         {;bb.c: 180:             menu_pos--;
  4700     0C6A  3001               	movlw	1
  4701     0C6B  02D5               	subwf	login_menu@menu_pos,f
  4702     0C6C  2C51               	goto	l3794
  4703     0C6D                     l3808:
  4704                           
  4705                           ;bb.c: 187:     clcd_print(menu[menu_pos], (0x80 + 1));
  4706     0C6D  1283               	bcf	3,5	;RP0=0, select bank0
  4707     0C6E  1303               	bcf	3,6	;RP1=0, select bank0
  4708     0C6F  0855               	movf	login_menu@menu_pos,w
  4709     0C70  00A5               	movwf	??_login_menu
  4710     0C71  0725               	addwf	??_login_menu,w
  4711     0C72  3ED8               	addlw	(low (_menu| 0))& (0+255)
  4712     0C73  0084               	movwf	4
  4713     0C74  1383               	bcf	3,7	;select IRP bank1
  4714     0C75  0800               	movf	0,w
  4715     0C76  00A0               	movwf	clcd_print@str
  4716     0C77  0A84               	incf	4,f
  4717     0C78  0800               	movf	0,w
  4718     0C79  0384               	decf	4,f
  4719     0C7A  00A1               	movwf	clcd_print@str+1
  4720     0C7B  3081               	movlw	129
  4721     0C7C  00A2               	movwf	clcd_print@addr
  4722     0C7D  160A  118A  2675  120A  158A  	fcall	_clcd_print
  4723     0C82                     l3810:
  4724                           
  4725                           ;bb.c: 188:     clcd_print(menu[menu_pos + 1], (0xC0 + 1));
  4726     0C82  1283               	bcf	3,5	;RP0=0, select bank0
  4727     0C83  1303               	bcf	3,6	;RP1=0, select bank0
  4728     0C84  0855               	movf	login_menu@menu_pos,w
  4729     0C85  00A5               	movwf	??_login_menu
  4730     0C86  0725               	addwf	??_login_menu,w
  4731     0C87  3EDA               	addlw	(low ((_menu| 0+2)))& (0+255)
  4732     0C88  0084               	movwf	4
  4733     0C89  1383               	bcf	3,7	;select IRP bank1
  4734     0C8A  0800               	movf	0,w
  4735     0C8B  00A0               	movwf	clcd_print@str
  4736     0C8C  0A84               	incf	4,f
  4737     0C8D  0800               	movf	0,w
  4738     0C8E  0384               	decf	4,f
  4739     0C8F  00A1               	movwf	clcd_print@str+1
  4740     0C90  30C1               	movlw	193
  4741     0C91  00A2               	movwf	clcd_print@addr
  4742     0C92  160A  118A  2675  120A  158A  	fcall	_clcd_print
  4743     0C97                     l3812:
  4744                           
  4745                           ;bb.c: 190:     clcd_putch(pos == 0 ? '*' : ' ', (0x80 + 0));
  4746     0C97  1283               	bcf	3,5	;RP0=0, select bank0
  4747     0C98  1303               	bcf	3,6	;RP1=0, select bank0
  4748     0C99  0854               	movf	login_menu@pos,w
  4749     0C9A  1903               	btfsc	3,2
  4750     0C9B  2C9D               	goto	u3421
  4751     0C9C  2C9E               	goto	u3420
  4752     0C9D                     u3421:
  4753     0C9D  2CA3               	goto	l3816
  4754     0C9E                     u3420:
  4755     0C9E                     l3814:
  4756     0C9E  3020               	movlw	32
  4757     0C9F  00A7               	movwf	_login_menu$282
  4758     0CA0  3000               	movlw	0
  4759     0CA1  00A8               	movwf	_login_menu$282+1
  4760     0CA2  2CA7               	goto	l3818
  4761     0CA3                     l3816:
  4762     0CA3  302A               	movlw	42
  4763     0CA4  00A7               	movwf	_login_menu$282
  4764     0CA5  3000               	movlw	0
  4765     0CA6  00A8               	movwf	_login_menu$282+1
  4766     0CA7                     l3818:
  4767     0CA7  3080               	movlw	128
  4768     0CA8  00F8               	movwf	clcd_putch@addr
  4769     0CA9  0827               	movf	_login_menu$282,w
  4770     0CAA  160A  118A  248C  120A  158A  	fcall	_clcd_putch
  4771     0CAF                     l3820:
  4772                           
  4773                           ;bb.c: 191:     clcd_putch(pos == 1 ? '*' : ' ', (0xC0 + 0));
  4774     0CAF  1283               	bcf	3,5	;RP0=0, select bank0
  4775     0CB0  1303               	bcf	3,6	;RP1=0, select bank0
  4776     0CB1  0354               	decf	login_menu@pos,w
  4777     0CB2  1903               	btfsc	3,2
  4778     0CB3  2CB5               	goto	u3431
  4779     0CB4  2CB6               	goto	u3430
  4780     0CB5                     u3431:
  4781     0CB5  2CBB               	goto	l3824
  4782     0CB6                     u3430:
  4783     0CB6                     l3822:
  4784     0CB6  3020               	movlw	32
  4785     0CB7  00A9               	movwf	_login_menu$283
  4786     0CB8  3000               	movlw	0
  4787     0CB9  00AA               	movwf	_login_menu$283+1
  4788     0CBA  2CBF               	goto	l3826
  4789     0CBB                     l3824:
  4790     0CBB  302A               	movlw	42
  4791     0CBC  00A9               	movwf	_login_menu$283
  4792     0CBD  3000               	movlw	0
  4793     0CBE  00AA               	movwf	_login_menu$283+1
  4794     0CBF                     l3826:
  4795     0CBF  30C0               	movlw	192
  4796     0CC0  00F8               	movwf	clcd_putch@addr
  4797     0CC1  0829               	movf	_login_menu$283,w
  4798     0CC2  160A  118A  248C  120A  158A  	fcall	_clcd_putch
  4799     0CC7                     l3828:
  4800                           
  4801                           ;bb.c: 193:     return menu_pos + pos;
  4802     0CC7  1283               	bcf	3,5	;RP0=0, select bank0
  4803     0CC8  1303               	bcf	3,6	;RP1=0, select bank0
  4804     0CC9  0854               	movf	login_menu@pos,w
  4805     0CCA  0755               	addwf	login_menu@menu_pos,w
  4806     0CCB                     l247:
  4807     0CCB  0008               	return
  4808     0CCC                     __end_of_login_menu:
  4809                           
  4810                           	psect	text8
  4811     0E8C                     __ptext8:	
  4812 ;; *************** function _login *****************
  4813 ;; Defined at:
  4814 ;;		line 69 in file "bb.c"
  4815 ;; Parameters:    Size  Location     Type
  4816 ;;  key             1    wreg     unsigned char 
  4817 ;;  reset_flag      1    5[BANK0 ] unsigned char 
  4818 ;; Auto vars:     Size  Location     Type
  4819 ;;  key             1    9[BANK0 ] unsigned char 
  4820 ;;  k               2   10[BANK0 ] int 
  4821 ;; Return value:  Size  Location     Type
  4822 ;;                  1    wreg      unsigned char 
  4823 ;; Registers used:
  4824 ;;		wreg, fsr0l, fsr0h, status,2, status,0, pclath, btemp1, cstack
  4825 ;; Tracked objects:
  4826 ;;		On entry : 0/0
  4827 ;;		On exit  : 0/0
  4828 ;;		Unchanged: 0/0
  4829 ;; Data sizes:     COMMON   BANK0   BANK1   BANK3   BANK2
  4830 ;;      Params:         0       1       0       0       0
  4831 ;;      Locals:         0       3       0       0       0
  4832 ;;      Temps:          0       3       0       0       0
  4833 ;;      Totals:         0       7       0       0       0
  4834 ;;Total ram usage:        7 bytes
  4835 ;; Hardware stack levels used: 1
  4836 ;; Hardware stack levels required when called: 2
  4837 ;; This function calls:
  4838 ;;		___awdiv
  4839 ;;		___awmod
  4840 ;;		_clcd_print
  4841 ;;		_clcd_putch
  4842 ;;		_clcd_write
  4843 ;;		_clear_screen
  4844 ;;		_strcmp
  4845 ;; This function is called by:
  4846 ;;		_main
  4847 ;; This function uses a non-reentrant model
  4848 ;;
  4849                           
  4850     0E8C                     _login:	
  4851                           ;psect for function _login
  4852                           
  4853                           
  4854                           ;incstack = 0
  4855                           ; Regs used in _login: [wreg-fsr0h+status,2+status,0+pclath+btemp1+cstack]
  4856                           ;login@key stored from wreg
  4857     0E8C  1283               	bcf	3,5	;RP0=0, select bank0
  4858     0E8D  1303               	bcf	3,6	;RP1=0, select bank0
  4859     0E8E  00A9               	movwf	login@key
  4860     0E8F                     l3682:
  4861                           
  4862                           ;bb.c: 69:  char login(unsigned char key, unsigned char reset_flag);bb.c: 70: {;bb.c: 71
      +                          :     static char uPass[5];;bb.c: 72:     static unsigned char i;;bb.c: 73:     static u
      +                          nsigned char attempt;;bb.c: 75:     if(once == 0)
  4863     0E8F  1683               	bsf	3,5	;RP0=1, select bank1
  4864     0E90  1303               	bcf	3,6	;RP1=0, select bank1
  4865     0E91  0837               	movf	_once^(0+128),w
  4866     0E92  0438               	iorwf	(_once+1)^(0+128),w
  4867     0E93  1D03               	btfss	3,2
  4868     0E94  2E96               	goto	u3251
  4869     0E95  2E97               	goto	u3250
  4870     0E96                     u3251:
  4871     0E96  2EC4               	goto	l3700
  4872     0E97                     u3250:
  4873     0E97                     l3684:
  4874                           
  4875                           ;bb.c: 76:     {;bb.c: 77:         return_time = 5;
  4876     0E97  3005               	movlw	5
  4877     0E98  1283               	bcf	3,5	;RP0=0, select bank0
  4878     0E99  1303               	bcf	3,6	;RP1=0, select bank0
  4879     0E9A  00DA               	movwf	_return_time
  4880                           
  4881                           ;bb.c: 78:         attempt = '3';
  4882     0E9B  3033               	movlw	51
  4883     0E9C  00D6               	movwf	login@attempt
  4884     0E9D                     l3686:
  4885                           
  4886                           ;bb.c: 79:         i = 0;
  4887     0E9D  01D7               	clrf	login@i
  4888                           
  4889                           ;bb.c: 80:         for(int k=0;k<4;k++)
  4890     0E9E  01AA               	clrf	login@k
  4891     0E9F  01AB               	clrf	login@k+1
  4892     0EA0                     l3692:
  4893                           
  4894                           ;bb.c: 81:             uPass[k] = '\0';
  4895     0EA0  1283               	bcf	3,5	;RP0=0, select bank0
  4896     0EA1  1303               	bcf	3,6	;RP1=0, select bank0
  4897     0EA2  082A               	movf	login@k,w
  4898     0EA3  3ED3               	addlw	(low (login@uPass| 0))& (0+255)
  4899     0EA4  0084               	movwf	4
  4900     0EA5  1383               	bcf	3,7	;select IRP bank1
  4901     0EA6  0180               	clrf	0
  4902     0EA7                     l3694:
  4903     0EA7  3001               	movlw	1
  4904     0EA8  07AA               	addwf	login@k,f
  4905     0EA9  1803               	skipnc
  4906     0EAA  0AAB               	incf	login@k+1,f
  4907     0EAB  3000               	movlw	0
  4908     0EAC  07AB               	addwf	login@k+1,f
  4909     0EAD                     l3696:
  4910     0EAD  082B               	movf	login@k+1,w
  4911     0EAE  3A80               	xorlw	128
  4912     0EAF  00FF               	movwf	btemp1
  4913     0EB0  3080               	movlw	128
  4914     0EB1  027F               	subwf	btemp1,w
  4915     0EB2  1D03               	skipz
  4916     0EB3  2EB6               	goto	u3265
  4917     0EB4  3004               	movlw	4
  4918     0EB5  022A               	subwf	login@k,w
  4919     0EB6                     u3265:
  4920     0EB6  1C03               	skipc
  4921     0EB7  2EB9               	goto	u3261
  4922     0EB8  2EBA               	goto	u3260
  4923     0EB9                     u3261:
  4924     0EB9  2EA0               	goto	l3692
  4925     0EBA                     u3260:
  4926     0EBA                     l210:
  4927                           
  4928                           ;bb.c: 82:         key = 0x3F;
  4929     0EBA  303F               	movlw	63
  4930     0EBB  1283               	bcf	3,5	;RP0=0, select bank0
  4931     0EBC  1303               	bcf	3,6	;RP1=0, select bank0
  4932     0EBD  00A9               	movwf	login@key
  4933     0EBE                     l3698:
  4934                           
  4935                           ;bb.c: 83:         once=1;
  4936     0EBE  3001               	movlw	1
  4937     0EBF  1683               	bsf	3,5	;RP0=1, select bank1
  4938     0EC0  1303               	bcf	3,6	;RP1=0, select bank1
  4939     0EC1  00B7               	movwf	_once^(0+128)
  4940     0EC2  3000               	movlw	0
  4941     0EC3  00B8               	movwf	(_once^(0+128)+1)
  4942     0EC4                     l3700:
  4943                           
  4944                           ;bb.c: 86:     if(return_time == 0){
  4945     0EC4  1283               	bcf	3,5	;RP0=0, select bank0
  4946     0EC5  1303               	bcf	3,6	;RP1=0, select bank0
  4947     0EC6  085A               	movf	_return_time,w
  4948     0EC7  1D03               	btfss	3,2
  4949     0EC8  2ECA               	goto	u3271
  4950     0EC9  2ECB               	goto	u3270
  4951     0ECA                     u3271:
  4952     0ECA  2ED1               	goto	l3708
  4953     0ECB                     u3270:
  4954     0ECB                     l3702:
  4955                           
  4956                           ;bb.c: 87:         once=0;
  4957     0ECB  1683               	bsf	3,5	;RP0=1, select bank1
  4958     0ECC  1303               	bcf	3,6	;RP1=0, select bank1
  4959     0ECD  01B7               	clrf	_once^(0+128)
  4960     0ECE  01B8               	clrf	(_once+1)^(0+128)
  4961     0ECF                     l3704:
  4962                           
  4963                           ;bb.c: 88:         return 0x05;
  4964     0ECF  3005               	movlw	5
  4965     0ED0  2FFF               	goto	l212
  4966     0ED1                     l3708:
  4967                           
  4968                           ;bb.c: 90:     if(key == 0x37 && i < 4)
  4969     0ED1  3037               	movlw	55
  4970     0ED2  0629               	xorwf	login@key,w
  4971     0ED3  1D03               	btfss	3,2
  4972     0ED4  2ED6               	goto	u3281
  4973     0ED5  2ED7               	goto	u3280
  4974     0ED6                     u3281:
  4975     0ED6  2EF3               	goto	l3720
  4976     0ED7                     u3280:
  4977     0ED7                     l3710:
  4978     0ED7  3004               	movlw	4
  4979     0ED8  0257               	subwf	login@i,w
  4980     0ED9  1803               	skipnc
  4981     0EDA  2EDC               	goto	u3291
  4982     0EDB  2EDD               	goto	u3290
  4983     0EDC                     u3291:
  4984     0EDC  2EF3               	goto	l3720
  4985     0EDD                     u3290:
  4986     0EDD                     l3712:
  4987                           
  4988                           ;bb.c: 91:     {;bb.c: 92:         uPass[i] = '1';
  4989     0EDD  0857               	movf	login@i,w
  4990     0EDE  3ED3               	addlw	(low (login@uPass| 0))& (0+255)
  4991     0EDF  0084               	movwf	4
  4992     0EE0  3031               	movlw	49
  4993     0EE1  1383               	bcf	3,7	;select IRP bank1
  4994     0EE2  0080               	movwf	0
  4995     0EE3                     l3714:
  4996                           
  4997                           ;bb.c: 93:         clcd_putch('*', (0xC0 + 6 + i));
  4998     0EE3  0857               	movf	login@i,w
  4999     0EE4  3EC6               	addlw	198
  5000     0EE5  00F8               	movwf	clcd_putch@addr
  5001     0EE6  302A               	movlw	42
  5002     0EE7  160A  118A  248C  120A  158A  	fcall	_clcd_putch
  5003     0EEC                     l3716:
  5004                           
  5005                           ;bb.c: 94:         i++;
  5006     0EEC  3001               	movlw	1
  5007     0EED  1283               	bcf	3,5	;RP0=0, select bank0
  5008     0EEE  1303               	bcf	3,6	;RP1=0, select bank0
  5009     0EEF  07D7               	addwf	login@i,f
  5010     0EF0                     l3718:
  5011                           
  5012                           ;bb.c: 95:         return_time = 5;
  5013     0EF0  3005               	movlw	5
  5014     0EF1  00DA               	movwf	_return_time
  5015                           
  5016                           ;bb.c: 96:     }
  5017     0EF2  2F0F               	goto	l3732
  5018     0EF3                     l3720:
  5019     0EF3  302F               	movlw	47
  5020     0EF4  0629               	xorwf	login@key,w
  5021     0EF5  1D03               	btfss	3,2
  5022     0EF6  2EF8               	goto	u3301
  5023     0EF7  2EF9               	goto	u3300
  5024     0EF8                     u3301:
  5025     0EF8  2F0F               	goto	l3732
  5026     0EF9                     u3300:
  5027     0EF9                     l3722:
  5028     0EF9  3004               	movlw	4
  5029     0EFA  0257               	subwf	login@i,w
  5030     0EFB  1803               	skipnc
  5031     0EFC  2EFE               	goto	u3311
  5032     0EFD  2EFF               	goto	u3310
  5033     0EFE                     u3311:
  5034     0EFE  2F0F               	goto	l3732
  5035     0EFF                     u3310:
  5036     0EFF                     l3724:
  5037                           
  5038                           ;bb.c: 98:     {;bb.c: 99:         uPass[i] = '2';
  5039     0EFF  0857               	movf	login@i,w
  5040     0F00  3ED3               	addlw	(low (login@uPass| 0))& (0+255)
  5041     0F01  0084               	movwf	4
  5042     0F02  3032               	movlw	50
  5043     0F03  1383               	bcf	3,7	;select IRP bank1
  5044     0F04  0080               	movwf	0
  5045     0F05                     l3726:
  5046                           
  5047                           ;bb.c: 100:         clcd_putch('*', (0xC0 + 6 + i));
  5048     0F05  0857               	movf	login@i,w
  5049     0F06  3EC6               	addlw	198
  5050     0F07  00F8               	movwf	clcd_putch@addr
  5051     0F08  302A               	movlw	42
  5052     0F09  160A  118A  248C  120A  158A  	fcall	_clcd_putch
  5053     0F0E  2EEC               	goto	l3716
  5054     0F0F                     l3732:
  5055                           
  5056                           ;bb.c: 105:     if(i == 4)
  5057     0F0F  3004               	movlw	4
  5058     0F10  0657               	xorwf	login@i,w
  5059     0F11  1D03               	btfss	3,2
  5060     0F12  2F14               	goto	u3321
  5061     0F13  2F15               	goto	u3320
  5062     0F14                     u3321:
  5063     0F14  2FFE               	goto	l3780
  5064     0F15                     u3320:
  5065     0F15                     l3734:
  5066                           
  5067                           ;bb.c: 106:     {;bb.c: 107:         if(strcmp(uPass,pass)==0){
  5068     0F15  30D3               	movlw	(low (login@uPass| 0))& (0+255)
  5069     0F16  00F2               	movwf	strcmp@l
  5070     0F17  30E2               	movlw	(low (_pass| 0))& (0+255)
  5071     0F18  00F3               	movwf	strcmp@r
  5072     0F19  160A  118A  258F  120A  158A  	fcall	_strcmp
  5073     0F1E  0872               	movf	?_strcmp,w
  5074     0F1F  0473               	iorwf	?_strcmp+1,w
  5075     0F20  1D03               	btfss	3,2
  5076     0F21  2F23               	goto	u3331
  5077     0F22  2F24               	goto	u3330
  5078     0F23                     u3331:
  5079     0F23  2F26               	goto	l3742
  5080     0F24                     u3330:
  5081     0F24                     l3736:
  5082                           
  5083                           ;bb.c: 108:         return 0x07;
  5084     0F24  3007               	movlw	7
  5085     0F25  2FFF               	goto	l212
  5086     0F26                     l3742:
  5087                           
  5088                           ;bb.c: 111:             attempt--;
  5089     0F26  3001               	movlw	1
  5090     0F27  1283               	bcf	3,5	;RP0=0, select bank0
  5091     0F28  1303               	bcf	3,6	;RP1=0, select bank0
  5092     0F29  02D6               	subwf	login@attempt,f
  5093                           
  5094                           ;bb.c: 113:             if(attempt=='0')
  5095     0F2A  3030               	movlw	48
  5096     0F2B  0656               	xorwf	login@attempt,w
  5097     0F2C  1D03               	btfss	3,2
  5098     0F2D  2F2F               	goto	u3341
  5099     0F2E  2F30               	goto	u3340
  5100     0F2F                     u3341:
  5101     0F2F  2F9B               	goto	l3758
  5102     0F30                     u3340:
  5103     0F30                     l3744:
  5104                           
  5105                           ;bb.c: 114:             {;bb.c: 115:                 clcd_write(0x0C, 0);
  5106     0F30  01F2               	clrf	clcd_write@mode
  5107     0F31  300C               	movlw	12
  5108     0F32  160A  118A  24BE  120A  158A  	fcall	_clcd_write
  5109     0F37                     l3746:
  5110                           
  5111                           ;bb.c: 116:                 _delay((unsigned long)((100)*(20000000/4000000.0)));
  5112     0F37  30A5               	movlw	165
  5113     0F38  1283               	bcf	3,5	;RP0=0, select bank0
  5114     0F39  1303               	bcf	3,6	;RP1=0, select bank0
  5115     0F3A  00A6               	movwf	??_login
  5116     0F3B                     u4027:
  5117     0F3B  0BA6               	decfsz	??_login,f
  5118     0F3C  2F3B               	goto	u4027
  5119     0F3D  2F3E               	nop2
  5120     0F3E                     l3748:
  5121                           
  5122                           ;bb.c: 117:                 clcd_print(" You are blocked",(0x80 + 0));
  5123     0F3E  30A6               	movlw	low (STR_18| (0+32768))
  5124     0F3F  1283               	bcf	3,5	;RP0=0, select bank0
  5125     0F40  1303               	bcf	3,6	;RP1=0, select bank0
  5126     0F41  00A0               	movwf	clcd_print@str
  5127     0F42  3085               	movlw	high (STR_18| (0+32768))
  5128     0F43  00A1               	movwf	clcd_print@str+1
  5129     0F44  3080               	movlw	128
  5130     0F45  00A2               	movwf	clcd_print@addr
  5131     0F46  160A  118A  2675  120A  158A  	fcall	_clcd_print
  5132     0F4B                     l3750:
  5133                           
  5134                           ;bb.c: 118:                 clcd_print("Wait...for 60sec",(0xC0 + 0));
  5135     0F4B  3084               	movlw	low (STR_19| (0+32768))
  5136     0F4C  1283               	bcf	3,5	;RP0=0, select bank0
  5137     0F4D  1303               	bcf	3,6	;RP1=0, select bank0
  5138     0F4E  00A0               	movwf	clcd_print@str
  5139     0F4F  3085               	movlw	high (STR_19| (0+32768))
  5140     0F50  00A1               	movwf	clcd_print@str+1
  5141     0F51  30C0               	movlw	192
  5142     0F52  00A2               	movwf	clcd_print@addr
  5143     0F53  160A  118A  2675  120A  158A  	fcall	_clcd_print
  5144     0F58                     l3752:
  5145                           
  5146                           ;bb.c: 119:                 sec=60;
  5147     0F58  303C               	movlw	60
  5148     0F59  1283               	bcf	3,5	;RP0=0, select bank0
  5149     0F5A  1303               	bcf	3,6	;RP1=0, select bank0
  5150     0F5B  00D9               	movwf	_sec
  5151                           
  5152                           ;bb.c: 121:                   while(sec!=0)
  5153     0F5C  2F91               	goto	l3756
  5154     0F5D                     l3754:
  5155                           
  5156                           ;bb.c: 122:                 {;bb.c: 123:                     clcd_putch((sec/10) + '0', 
      +                          (0xC0 + 11));
  5157     0F5D  30CB               	movlw	203
  5158     0F5E  00F8               	movwf	clcd_putch@addr
  5159     0F5F  300A               	movlw	10
  5160     0F60  00F2               	movwf	___awdiv@divisor
  5161     0F61  3000               	movlw	0
  5162     0F62  00F3               	movwf	___awdiv@divisor+1
  5163     0F63  0859               	movf	_sec,w
  5164     0F64  00A6               	movwf	??_login
  5165     0F65  01A7               	clrf	??_login+1
  5166     0F66  0826               	movf	??_login,w
  5167     0F67  00F4               	movwf	___awdiv@dividend
  5168     0F68  0827               	movf	??_login+1,w
  5169     0F69  00F5               	movwf	___awdiv@dividend+1
  5170     0F6A  120A  158A  221B  120A  158A  	fcall	___awdiv
  5171     0F6F  0872               	movf	?___awdiv,w
  5172     0F70  3E30               	addlw	48
  5173     0F71  160A  118A  248C  120A  158A  	fcall	_clcd_putch
  5174                           
  5175                           ;bb.c: 124:                     clcd_putch((sec%10) + '0', (0xC0 + 12));
  5176     0F76  30CC               	movlw	204
  5177     0F77  00F8               	movwf	clcd_putch@addr
  5178     0F78  300A               	movlw	10
  5179     0F79  00F2               	movwf	___awmod@divisor
  5180     0F7A  3000               	movlw	0
  5181     0F7B  00F3               	movwf	___awmod@divisor+1
  5182     0F7C  1283               	bcf	3,5	;RP0=0, select bank0
  5183     0F7D  1303               	bcf	3,6	;RP1=0, select bank0
  5184     0F7E  0859               	movf	_sec,w
  5185     0F7F  00A6               	movwf	??_login
  5186     0F80  01A7               	clrf	??_login+1
  5187     0F81  0826               	movf	??_login,w
  5188     0F82  00F4               	movwf	___awmod@dividend
  5189     0F83  0827               	movf	??_login+1,w
  5190     0F84  00F5               	movwf	___awmod@dividend+1
  5191     0F85  120A  158A  21C4  120A  158A  	fcall	___awmod
  5192     0F8A  0872               	movf	?___awmod,w
  5193     0F8B  3E30               	addlw	48
  5194     0F8C  160A  118A  248C  120A  158A  	fcall	_clcd_putch
  5195     0F91                     l3756:
  5196                           
  5197                           ;bb.c: 121:                   while(sec!=0)
  5198     0F91  1283               	bcf	3,5	;RP0=0, select bank0
  5199     0F92  1303               	bcf	3,6	;RP1=0, select bank0
  5200     0F93  0859               	movf	_sec,w
  5201     0F94  1D03               	btfss	3,2
  5202     0F95  2F97               	goto	u3351
  5203     0F96  2F98               	goto	u3350
  5204     0F97                     u3351:
  5205     0F97  2F5D               	goto	l3754
  5206     0F98                     u3350:
  5207     0F98                     l222:
  5208                           
  5209                           ;bb.c: 127:                 attempt='3';
  5210     0F98  3033               	movlw	51
  5211     0F99  00D6               	movwf	login@attempt
  5212                           
  5213                           ;bb.c: 129:         }
  5214     0F9A  2FD2               	goto	l3766
  5215     0F9B                     l3758:
  5216                           
  5217                           ;bb.c: 131:                 clear_screen();
  5218     0F9B  160A  118A  240A  120A  158A  	fcall	_clear_screen
  5219     0FA0                     l3760:
  5220                           
  5221                           ;bb.c: 133:                 clcd_print(" WRONG PASSWORD ",(0x80 + 0));
  5222     0FA0  3051               	movlw	low (STR_20| (0+32768))
  5223     0FA1  1283               	bcf	3,5	;RP0=0, select bank0
  5224     0FA2  1303               	bcf	3,6	;RP1=0, select bank0
  5225     0FA3  00A0               	movwf	clcd_print@str
  5226     0FA4  3085               	movlw	high (STR_20| (0+32768))
  5227     0FA5  00A1               	movwf	clcd_print@str+1
  5228     0FA6  3080               	movlw	128
  5229     0FA7  00A2               	movwf	clcd_print@addr
  5230     0FA8  160A  118A  2675  120A  158A  	fcall	_clcd_print
  5231     0FAD                     l3762:
  5232                           
  5233                           ;bb.c: 134:                 clcd_putch(attempt,(0xC0 + 0));
  5234     0FAD  30C0               	movlw	192
  5235     0FAE  00F8               	movwf	clcd_putch@addr
  5236     0FAF  1283               	bcf	3,5	;RP0=0, select bank0
  5237     0FB0  1303               	bcf	3,6	;RP1=0, select bank0
  5238     0FB1  0856               	movf	login@attempt,w
  5239     0FB2  160A  118A  248C  120A  158A  	fcall	_clcd_putch
  5240                           
  5241                           ;bb.c: 135:                 clcd_print(" attempt remain",(0xC0 + 1));
  5242     0FB7  30D8               	movlw	low (STR_21| (0+32768))
  5243     0FB8  1283               	bcf	3,5	;RP0=0, select bank0
  5244     0FB9  1303               	bcf	3,6	;RP1=0, select bank0
  5245     0FBA  00A0               	movwf	clcd_print@str
  5246     0FBB  3085               	movlw	high (STR_21| (0+32768))
  5247     0FBC  00A1               	movwf	clcd_print@str+1
  5248     0FBD  30C1               	movlw	193
  5249     0FBE  00A2               	movwf	clcd_print@addr
  5250     0FBF  160A  118A  2675  120A  158A  	fcall	_clcd_print
  5251     0FC4                     l3764:
  5252                           
  5253                           ;bb.c: 136:                 _delay((unsigned long)((2000)*(20000000/4000.0)));
  5254     0FC4  3033               	movlw	51
  5255     0FC5  1283               	bcf	3,5	;RP0=0, select bank0
  5256     0FC6  1303               	bcf	3,6	;RP1=0, select bank0
  5257     0FC7  00A8               	movwf	??_login+2
  5258     0FC8  30BB               	movlw	187
  5259     0FC9  00A7               	movwf	??_login+1
  5260     0FCA  30DF               	movlw	223
  5261     0FCB  00A6               	movwf	??_login
  5262     0FCC                     u4037:
  5263     0FCC  0BA6               	decfsz	??_login,f
  5264     0FCD  2FCC               	goto	u4037
  5265     0FCE  0BA7               	decfsz	??_login+1,f
  5266     0FCF  2FCC               	goto	u4037
  5267     0FD0  0BA8               	decfsz	??_login+2,f
  5268     0FD1  2FCC               	goto	u4037
  5269     0FD2                     l3766:
  5270                           
  5271                           ;bb.c: 138:             clear_screen();
  5272     0FD2  160A  118A  240A  120A  158A  	fcall	_clear_screen
  5273     0FD7                     l3768:
  5274                           
  5275                           ;bb.c: 139:             clcd_print(" ENTER  PASSWORD ",(0x80 + 0));
  5276     0FD7  303F               	movlw	low (STR_22| (0+32768))
  5277     0FD8  1283               	bcf	3,5	;RP0=0, select bank0
  5278     0FD9  1303               	bcf	3,6	;RP1=0, select bank0
  5279     0FDA  00A0               	movwf	clcd_print@str
  5280     0FDB  3085               	movlw	high (STR_22| (0+32768))
  5281     0FDC  00A1               	movwf	clcd_print@str+1
  5282     0FDD  3080               	movlw	128
  5283     0FDE  00A2               	movwf	clcd_print@addr
  5284     0FDF  160A  118A  2675  120A  158A  	fcall	_clcd_print
  5285     0FE4                     l3770:
  5286                           
  5287                           ;bb.c: 140:             clcd_write(0xC6, 0);
  5288     0FE4  01F2               	clrf	clcd_write@mode
  5289     0FE5  30C6               	movlw	198
  5290     0FE6  160A  118A  24BE  120A  158A  	fcall	_clcd_write
  5291     0FEB                     l3772:
  5292                           
  5293                           ;bb.c: 141:             clcd_write(0x0F,0);
  5294     0FEB  01F2               	clrf	clcd_write@mode
  5295     0FEC  300F               	movlw	15
  5296     0FED  160A  118A  24BE  120A  158A  	fcall	_clcd_write
  5297     0FF2                     l3774:
  5298                           
  5299                           ;bb.c: 142:             _delay((unsigned long)((100)*(20000000/4000000.0)));
  5300     0FF2  30A5               	movlw	165
  5301     0FF3  1283               	bcf	3,5	;RP0=0, select bank0
  5302     0FF4  1303               	bcf	3,6	;RP1=0, select bank0
  5303     0FF5  00A6               	movwf	??_login
  5304     0FF6                     u4047:
  5305     0FF6  0BA6               	decfsz	??_login,f
  5306     0FF7  2FF6               	goto	u4047
  5307     0FF8  2FF9               	nop2
  5308     0FF9                     l3776:
  5309                           
  5310                           ;bb.c: 143:             i=0;
  5311     0FF9  1283               	bcf	3,5	;RP0=0, select bank0
  5312     0FFA  1303               	bcf	3,6	;RP1=0, select bank0
  5313     0FFB  01D7               	clrf	login@i
  5314     0FFC                     l3778:
  5315                           
  5316                           ;bb.c: 144:             return_time=5;
  5317     0FFC  3005               	movlw	5
  5318     0FFD  00DA               	movwf	_return_time
  5319     0FFE                     l3780:
  5320                           
  5321                           ;bb.c: 150:     return 0x10;
  5322     0FFE  3010               	movlw	16
  5323     0FFF                     l212:
  5324     0FFF  0008               	return
  5325     1000                     __end_of_login:
  5326                           
  5327                           	psect	text9
  5328     158F                     __ptext9:	
  5329 ;; *************** function _strcmp *****************
  5330 ;; Defined at:
  5331 ;;		line 3 in file "E:\embeded Sof\pic\sources\c99\common\strcmp.c"
  5332 ;; Parameters:    Size  Location     Type
  5333 ;;  l               1    2[COMMON] PTR const unsigned char 
  5334 ;;		 -> login@uPass(5), 
  5335 ;;  r               1    3[COMMON] PTR const unsigned char 
  5336 ;;		 -> pass(5), 
  5337 ;; Auto vars:     Size  Location     Type
  5338 ;;		None
  5339 ;; Return value:  Size  Location     Type
  5340 ;;                  2    2[COMMON] int 
  5341 ;; Registers used:
  5342 ;;		wreg, fsr0l, fsr0h, status,2, status,0
  5343 ;; Tracked objects:
  5344 ;;		On entry : 0/0
  5345 ;;		On exit  : 0/0
  5346 ;;		Unchanged: 0/0
  5347 ;; Data sizes:     COMMON   BANK0   BANK1   BANK3   BANK2
  5348 ;;      Params:         2       0       0       0       0
  5349 ;;      Locals:         0       0       0       0       0
  5350 ;;      Temps:          2       0       0       0       0
  5351 ;;      Totals:         4       0       0       0       0
  5352 ;;Total ram usage:        4 bytes
  5353 ;; Hardware stack levels used: 1
  5354 ;; Hardware stack levels required when called: 1
  5355 ;; This function calls:
  5356 ;;		Nothing
  5357 ;; This function is called by:
  5358 ;;		_login
  5359 ;; This function uses a non-reentrant model
  5360 ;;
  5361                           
  5362     158F                     _strcmp:	
  5363                           ;psect for function _strcmp
  5364                           
  5365     158F                     l2596:	
  5366                           ;incstack = 0
  5367                           ; Regs used in _strcmp: [wreg-fsr0h+status,2+status,0]
  5368                           
  5369     158F  2D94               	goto	l2600
  5370     1590                     l2598:
  5371     1590  3001               	movlw	1
  5372     1591  07F2               	addwf	strcmp@l,f
  5373     1592  3001               	movlw	1
  5374     1593  07F3               	addwf	strcmp@r,f
  5375     1594                     l2600:
  5376     1594  0873               	movf	strcmp@r,w
  5377     1595  0084               	movwf	4
  5378     1596  1383               	bcf	3,7	;select IRP bank0
  5379     1597  0800               	movf	0,w
  5380     1598  00F4               	movwf	??_strcmp
  5381     1599  0872               	movf	strcmp@l,w
  5382     159A  0084               	movwf	4
  5383     159B  0800               	movf	0,w
  5384     159C  0674               	xorwf	??_strcmp,w
  5385     159D  1D03               	skipz
  5386     159E  2DA0               	goto	u1901
  5387     159F  2DA1               	goto	u1900
  5388     15A0                     u1901:
  5389     15A0  2DA8               	goto	l2604
  5390     15A1                     u1900:
  5391     15A1                     l2602:
  5392     15A1  0872               	movf	strcmp@l,w
  5393     15A2  0084               	movwf	4
  5394     15A3  0800               	movf	0,w
  5395     15A4  1D03               	btfss	3,2
  5396     15A5  2DA7               	goto	u1911
  5397     15A6  2DA8               	goto	u1910
  5398     15A7                     u1911:
  5399     15A7  2D90               	goto	l2598
  5400     15A8                     u1910:
  5401     15A8                     l2604:
  5402     15A8  0873               	movf	strcmp@r,w
  5403     15A9  0084               	movwf	4
  5404     15AA  0800               	movf	0,w
  5405     15AB  00F4               	movwf	??_strcmp
  5406     15AC  0872               	movf	strcmp@l,w
  5407     15AD  0084               	movwf	4
  5408     15AE  0800               	movf	0,w
  5409     15AF  00F5               	movwf	??_strcmp+1
  5410     15B0  0874               	movf	??_strcmp,w
  5411     15B1  0275               	subwf	??_strcmp+1,w
  5412     15B2  00F2               	movwf	?_strcmp
  5413     15B3  01F3               	clrf	?_strcmp+1
  5414     15B4  1C03               	skipc
  5415     15B5  03F3               	decf	?_strcmp+1,f
  5416     15B6                     l1131:
  5417     15B6  0008               	return
  5418     15B7                     __end_of_strcmp:
  5419                           
  5420                           	psect	text10
  5421     0B54                     __ptext10:	
  5422 ;; *************** function _log_car_event *****************
  5423 ;; Defined at:
  5424 ;;		line 318 in file "bb.c"
  5425 ;; Parameters:    Size  Location     Type
  5426 ;;  event           2   18[BANK0 ] PTR unsigned char 
  5427 ;;		 -> STR_11(3), STR_10(3), event(3), 
  5428 ;;  speed           1   20[BANK0 ] PTR unsigned char 
  5429 ;;		 -> potVal(4), 
  5430 ;; Auto vars:     Size  Location     Type
  5431 ;;  add             1   21[BANK0 ] unsigned char 
  5432 ;; Return value:  Size  Location     Type
  5433 ;;                  1    wreg      void 
  5434 ;; Registers used:
  5435 ;;		wreg, fsr0l, fsr0h, status,2, status,0, pclath, btemp1, cstack
  5436 ;; Tracked objects:
  5437 ;;		On entry : 0/0
  5438 ;;		On exit  : 0/0
  5439 ;;		Unchanged: 0/0
  5440 ;; Data sizes:     COMMON   BANK0   BANK1   BANK3   BANK2
  5441 ;;      Params:         0       3       0       0       0
  5442 ;;      Locals:         0       1       0       0       0
  5443 ;;      Temps:          0       0       0       0       0
  5444 ;;      Totals:         0       4       0       0       0
  5445 ;;Total ram usage:        4 bytes
  5446 ;; Hardware stack levels used: 1
  5447 ;; Hardware stack levels required when called: 4
  5448 ;; This function calls:
  5449 ;;		___bmul
  5450 ;;		_ext_eeprom_store_str
  5451 ;;		_get_time
  5452 ;;		_strncpy
  5453 ;; This function is called by:
  5454 ;;		_main
  5455 ;; This function uses a non-reentrant model
  5456 ;;
  5457                           
  5458     0B54                     _log_car_event:	
  5459                           ;psect for function _log_car_event
  5460                           
  5461     0B54                     l3648:	
  5462                           ;incstack = 0
  5463                           ; Regs used in _log_car_event: [wreg-fsr0h+status,2+status,0+pclath+btemp1+cstack]
  5464                           
  5465     0B54                     l3650:
  5466                           
  5467                           ;bb.c: 322:     get_time();
  5468     0B54  120A  158A  20D2  120A  158A  	fcall	_get_time
  5469     0B59                     l3652:
  5470                           
  5471                           ;bb.c: 324:     strncpy(log, time, 6);
  5472     0B59  30BF               	movlw	(low (_log| 0))& (0+255)
  5473     0B5A  00F2               	movwf	strncpy@d
  5474     0B5B  305D               	movlw	(low (_time| 0))& (0+255)
  5475     0B5C  00F3               	movwf	strncpy@s
  5476     0B5D  3000               	movlw	0
  5477     0B5E  00F4               	movwf	strncpy@s+1
  5478     0B5F  3006               	movlw	6
  5479     0B60  00F5               	movwf	strncpy@n
  5480     0B61  3000               	movlw	0
  5481     0B62  00F6               	movwf	strncpy@n+1
  5482     0B63  160A  118A  27BC  120A  158A  	fcall	_strncpy
  5483     0B68                     l3654:
  5484                           
  5485                           ;bb.c: 325:     strncpy(&log[6], event, 2);
  5486     0B68  30C5               	movlw	(low ((_log| 0+6)))& (0+255)
  5487     0B69  00F2               	movwf	strncpy@d
  5488     0B6A  1283               	bcf	3,5	;RP0=0, select bank0
  5489     0B6B  1303               	bcf	3,6	;RP1=0, select bank0
  5490     0B6C  0832               	movf	log_car_event@event,w
  5491     0B6D  00F3               	movwf	strncpy@s
  5492     0B6E  0833               	movf	log_car_event@event+1,w
  5493     0B6F  00F4               	movwf	strncpy@s+1
  5494     0B70  3002               	movlw	2
  5495     0B71  00F5               	movwf	strncpy@n
  5496     0B72  3000               	movlw	0
  5497     0B73  00F6               	movwf	strncpy@n+1
  5498     0B74  160A  118A  27BC  120A  158A  	fcall	_strncpy
  5499     0B79                     l3656:
  5500                           
  5501                           ;bb.c: 326:     strncpy(&log[8], speed, 2);
  5502     0B79  30C7               	movlw	(low ((_log| 0+8)))& (0+255)
  5503     0B7A  00F2               	movwf	strncpy@d
  5504     0B7B  1283               	bcf	3,5	;RP0=0, select bank0
  5505     0B7C  1303               	bcf	3,6	;RP1=0, select bank0
  5506     0B7D  0834               	movf	log_car_event@speed,w
  5507     0B7E  00F3               	movwf	strncpy@s
  5508     0B7F  3000               	movlw	0
  5509     0B80  00F4               	movwf	strncpy@s+1
  5510     0B81  3002               	movlw	2
  5511     0B82  00F5               	movwf	strncpy@n
  5512     0B83  3000               	movlw	0
  5513     0B84  00F6               	movwf	strncpy@n+1
  5514     0B85  160A  118A  27BC  120A  158A  	fcall	_strncpy
  5515     0B8A                     l3658:
  5516                           
  5517                           ;bb.c: 328:     log[10] = '\0';
  5518     0B8A  1683               	bsf	3,5	;RP0=1, select bank1
  5519     0B8B  1303               	bcf	3,6	;RP1=0, select bank1
  5520     0B8C  01C9               	clrf	(_log^(0+128)+10)
  5521     0B8D                     l3660:
  5522                           
  5523                           ;bb.c: 331:     if (loc >= 10)
  5524     0B8D  300A               	movlw	10
  5525     0B8E  1283               	bcf	3,5	;RP0=0, select bank0
  5526     0B8F  1303               	bcf	3,6	;RP1=0, select bank0
  5527     0B90  0269               	subwf	_loc,w
  5528     0B91  1C03               	skipc
  5529     0B92  2B94               	goto	u3231
  5530     0B93  2B95               	goto	u3230
  5531     0B94                     u3231:
  5532     0B94  2B96               	goto	l3664
  5533     0B95                     u3230:
  5534     0B95                     l3662:
  5535                           
  5536                           ;bb.c: 332:     {;bb.c: 333:         loc = 0;
  5537     0B95  01E9               	clrf	_loc
  5538     0B96                     l3664:
  5539                           
  5540                           ;bb.c: 336:     add = 0x00 + (loc * 10);
  5541     0B96  300A               	movlw	10
  5542     0B97  00F2               	movwf	___bmul@multiplicand
  5543     0B98  0869               	movf	_loc,w
  5544     0B99  160A  118A  2452  120A  158A  	fcall	___bmul
  5545     0B9E  1283               	bcf	3,5	;RP0=0, select bank0
  5546     0B9F  1303               	bcf	3,6	;RP1=0, select bank0
  5547     0BA0  00B5               	movwf	log_car_event@add
  5548     0BA1                     l3666:
  5549                           
  5550                           ;bb.c: 338:     if (event_count < 9)
  5551     0BA1  086B               	movf	_event_count+1,w
  5552     0BA2  3A80               	xorlw	128
  5553     0BA3  00FF               	movwf	btemp1
  5554     0BA4  3080               	movlw	128
  5555     0BA5  027F               	subwf	btemp1,w
  5556     0BA6  1D03               	skipz
  5557     0BA7  2BAA               	goto	u3245
  5558     0BA8  3009               	movlw	9
  5559     0BA9  026A               	subwf	_event_count,w
  5560     0BAA                     u3245:
  5561     0BAA  1803               	skipnc
  5562     0BAB  2BAD               	goto	u3241
  5563     0BAC  2BAE               	goto	u3240
  5564     0BAD                     u3241:
  5565     0BAD  2BB6               	goto	l3670
  5566     0BAE                     u3240:
  5567     0BAE                     l3668:
  5568                           
  5569                           ;bb.c: 339:     {;bb.c: 340:         event_count++;
  5570     0BAE  3001               	movlw	1
  5571     0BAF  1283               	bcf	3,5	;RP0=0, select bank0
  5572     0BB0  1303               	bcf	3,6	;RP1=0, select bank0
  5573     0BB1  07EA               	addwf	_event_count,f
  5574     0BB2  1803               	skipnc
  5575     0BB3  0AEB               	incf	_event_count+1,f
  5576     0BB4  3000               	movlw	0
  5577     0BB5  07EB               	addwf	_event_count+1,f
  5578     0BB6                     l3670:
  5579                           
  5580                           ;bb.c: 343:     ext_eeprom_store_str(add, log);
  5581     0BB6  30BF               	movlw	(low (_log| 0))& (0+255)
  5582     0BB7  1283               	bcf	3,5	;RP0=0, select bank0
  5583     0BB8  1303               	bcf	3,6	;RP1=0, select bank0
  5584     0BB9  00B0               	movwf	ext_eeprom_store_str@str
  5585     0BBA  0835               	movf	log_car_event@add,w
  5586     0BBB  160A  118A  24A1  120A  158A  	fcall	_ext_eeprom_store_str
  5587     0BC0                     l3672:
  5588                           
  5589                           ;bb.c: 345:     loc++;
  5590     0BC0  3001               	movlw	1
  5591     0BC1  1283               	bcf	3,5	;RP0=0, select bank0
  5592     0BC2  1303               	bcf	3,6	;RP1=0, select bank0
  5593     0BC3  07E9               	addwf	_loc,f
  5594     0BC4                     l286:
  5595     0BC4  0008               	return
  5596     0BC5                     __end_of_log_car_event:
  5597                           
  5598                           	psect	text11
  5599     17BC                     __ptext11:	
  5600 ;; *************** function _strncpy *****************
  5601 ;; Defined at:
  5602 ;;		line 3 in file "E:\embeded Sof\pic\sources\c99\common\strncpy.c"
  5603 ;; Parameters:    Size  Location     Type
  5604 ;;  d               1    2[COMMON] PTR unsigned char 
  5605 ;;		 -> set_time@ss(3), set_time@mm(3), set_time@hh(3), log(11), 
  5606 ;;  s               2    3[COMMON] PTR const unsigned char 
  5607 ;;		 -> time(7), STR_11(3), STR_10(3), event(3), 
  5608 ;;		 -> potVal(4), 
  5609 ;;  n               2    5[COMMON] unsigned int 
  5610 ;; Auto vars:     Size  Location     Type
  5611 ;;  cp              1    0[BANK0 ] PTR unsigned char 
  5612 ;;		 -> set_time@ss(3), set_time@mm(3), set_time@hh(3), log(11), 
  5613 ;; Return value:  Size  Location     Type
  5614 ;;                  1    2[COMMON] PTR unsigned char 
  5615 ;; Registers used:
  5616 ;;		wreg, fsr0l, fsr0h, status,2, status,0, pclath, btemp1
  5617 ;; Tracked objects:
  5618 ;;		On entry : 0/0
  5619 ;;		On exit  : 0/0
  5620 ;;		Unchanged: 0/0
  5621 ;; Data sizes:     COMMON   BANK0   BANK1   BANK3   BANK2
  5622 ;;      Params:         5       0       0       0       0
  5623 ;;      Locals:         0       1       0       0       0
  5624 ;;      Temps:          2       0       0       0       0
  5625 ;;      Totals:         7       1       0       0       0
  5626 ;;Total ram usage:        8 bytes
  5627 ;; Hardware stack levels used: 2
  5628 ;; Hardware stack levels required when called: 1
  5629 ;; This function calls:
  5630 ;;		Nothing
  5631 ;; This function is called by:
  5632 ;;		_log_car_event
  5633 ;;		_set_time
  5634 ;; This function uses a non-reentrant model
  5635 ;;
  5636                           
  5637     17BC                     _strncpy:	
  5638                           ;psect for function _strncpy
  5639                           
  5640     17BC                     l3610:	
  5641                           ;incstack = 0
  5642                           ; Regs used in _strncpy: [wreg-fsr0h+status,2+status,0+pclath+btemp1]
  5643                           
  5644     17BC  0872               	movf	strncpy@d,w
  5645     17BD  1283               	bcf	3,5	;RP0=0, select bank0
  5646     17BE  1303               	bcf	3,6	;RP1=0, select bank0
  5647     17BF  00A0               	movwf	strncpy@cp
  5648     17C0  2FE4               	goto	l3618
  5649     17C1                     l3612:
  5650     17C1  3001               	movlw	1
  5651     17C2  02F5               	subwf	strncpy@n,f
  5652     17C3  3000               	movlw	0
  5653     17C4  1C03               	skipc
  5654     17C5  03F6               	decf	strncpy@n+1,f
  5655     17C6  02F6               	subwf	strncpy@n+1,f
  5656     17C7                     l3614:
  5657     17C7  0874               	movf	strncpy@s+1,w
  5658     17C8  00F8               	movwf	??_strncpy+1
  5659     17C9  0873               	movf	strncpy@s,w
  5660     17CA  00F7               	movwf	??_strncpy
  5661     17CB  0AF3               	incf	strncpy@s,f
  5662     17CC  1903               	skipnz
  5663     17CD  0AF4               	incf	strncpy@s+1,f
  5664     17CE  0878               	movf	??_strncpy+1,w
  5665     17CF  00FF               	movwf	btemp1
  5666     17D0  0877               	movf	??_strncpy,w
  5667     17D1  0084               	movwf	4
  5668     17D2  120A  118A  27EE  160A  118A  	fcall	stringtab
  5669     17D7  00FF               	movwf	btemp1
  5670     17D8  0820               	movf	strncpy@cp,w
  5671     17D9  0AA0               	incf	strncpy@cp,f
  5672     17DA  0084               	movwf	4
  5673     17DB  087F               	movf	btemp1,w
  5674     17DC  1383               	bcf	3,7	;select IRP bank0
  5675     17DD  0080               	movwf	0
  5676     17DE  0800               	movf	0,w
  5677     17DF  1D03               	btfss	3,2
  5678     17E0  2FE2               	goto	u3191
  5679     17E1  2FE3               	goto	u3190
  5680     17E2                     u3191:
  5681     17E2  2FE4               	goto	l3618
  5682     17E3                     u3190:
  5683     17E3  2FF1               	goto	l3624
  5684     17E4                     l3618:
  5685     17E4  0875               	movf	strncpy@n,w
  5686     17E5  0476               	iorwf	strncpy@n+1,w
  5687     17E6  1D03               	btfss	3,2
  5688     17E7  2FE9               	goto	u3201
  5689     17E8  2FEA               	goto	u3200
  5690     17E9                     u3201:
  5691     17E9  2FC1               	goto	l3612
  5692     17EA                     u3200:
  5693     17EA  2FF1               	goto	l3624
  5694     17EB                     l3620:
  5695     17EB  0820               	movf	strncpy@cp,w
  5696     17EC  0084               	movwf	4
  5697     17ED  1383               	bcf	3,7	;select IRP bank0
  5698     17EE  0180               	clrf	0
  5699     17EF                     l3622:
  5700     17EF  3001               	movlw	1
  5701     17F0  07A0               	addwf	strncpy@cp,f
  5702     17F1                     l3624:
  5703     17F1  3001               	movlw	1
  5704     17F2  02F5               	subwf	strncpy@n,f
  5705     17F3  3000               	movlw	0
  5706     17F4  1C03               	skipc
  5707     17F5  03F6               	decf	strncpy@n+1,f
  5708     17F6  02F6               	subwf	strncpy@n+1,f
  5709     17F7  0A75               	incf	strncpy@n,w
  5710     17F8  1D03               	skipz
  5711     17F9  2FFE               	goto	u3211
  5712     17FA  0A76               	incf	strncpy@n+1,w
  5713     17FB  1D03               	btfss	3,2
  5714     17FC  2FFE               	goto	u3211
  5715     17FD  2FFF               	goto	u3210
  5716     17FE                     u3211:
  5717     17FE  2FEB               	goto	l3620
  5718     17FF                     u3210:
  5719     17FF                     l1156:
  5720     17FF  0008               	return
  5721     1800                     __end_of_strncpy:
  5722                           
  5723                           	psect	text12
  5724     14A1                     __ptext12:	
  5725 ;; *************** function _ext_eeprom_store_str *****************
  5726 ;; Defined at:
  5727 ;;		line 35 in file "ext_eeprom.c"
  5728 ;; Parameters:    Size  Location     Type
  5729 ;;  address         1    wreg     unsigned char 
  5730 ;;  str             1   16[BANK0 ] PTR unsigned char 
  5731 ;;		 -> log(11), 
  5732 ;; Auto vars:     Size  Location     Type
  5733 ;;  address         1   17[BANK0 ] unsigned char 
  5734 ;; Return value:  Size  Location     Type
  5735 ;;                  1    wreg      void 
  5736 ;; Registers used:
  5737 ;;		wreg, fsr0l, fsr0h, status,2, status,0, pclath, cstack
  5738 ;; Tracked objects:
  5739 ;;		On entry : 0/0
  5740 ;;		On exit  : 0/0
  5741 ;;		Unchanged: 0/0
  5742 ;; Data sizes:     COMMON   BANK0   BANK1   BANK3   BANK2
  5743 ;;      Params:         0       1       0       0       0
  5744 ;;      Locals:         0       1       0       0       0
  5745 ;;      Temps:          0       0       0       0       0
  5746 ;;      Totals:         0       2       0       0       0
  5747 ;;Total ram usage:        2 bytes
  5748 ;; Hardware stack levels used: 1
  5749 ;; Hardware stack levels required when called: 3
  5750 ;; This function calls:
  5751 ;;		_write_external_eeprom
  5752 ;; This function is called by:
  5753 ;;		_log_car_event
  5754 ;; This function uses a non-reentrant model
  5755 ;;
  5756                           
  5757     14A1                     _ext_eeprom_store_str:	
  5758                           ;psect for function _ext_eeprom_store_str
  5759                           
  5760                           
  5761                           ;incstack = 0
  5762                           ; Regs used in _ext_eeprom_store_str: [wreg-fsr0h+status,2+status,0+pclath+cstack]
  5763                           ;ext_eeprom_store_str@address stored from wreg
  5764     14A1  1283               	bcf	3,5	;RP0=0, select bank0
  5765     14A2  1303               	bcf	3,6	;RP1=0, select bank0
  5766     14A3  00B1               	movwf	ext_eeprom_store_str@address
  5767     14A4                     l2652:
  5768                           
  5769                           ;ext_eeprom.c: 37:     while(*str!='\0'){
  5770     14A4  2CB5               	goto	l2660
  5771     14A5                     l2654:
  5772                           
  5773                           ;ext_eeprom.c: 38:      write_external_eeprom(address,*str);
  5774     14A5  0830               	movf	ext_eeprom_store_str@str,w
  5775     14A6  0084               	movwf	4
  5776     14A7  0800               	movf	0,w
  5777     14A8  00AC               	movwf	write_external_eeprom@data
  5778     14A9  0831               	movf	ext_eeprom_store_str@address,w
  5779     14AA  120A  158A  2007  160A  118A  	fcall	_write_external_eeprom
  5780     14AF                     l2656:
  5781                           
  5782                           ;ext_eeprom.c: 39:      str++;
  5783     14AF  3001               	movlw	1
  5784     14B0  1283               	bcf	3,5	;RP0=0, select bank0
  5785     14B1  1303               	bcf	3,6	;RP1=0, select bank0
  5786     14B2  07B0               	addwf	ext_eeprom_store_str@str,f
  5787     14B3                     l2658:
  5788                           
  5789                           ;ext_eeprom.c: 40:      address++;
  5790     14B3  3001               	movlw	1
  5791     14B4  07B1               	addwf	ext_eeprom_store_str@address,f
  5792     14B5                     l2660:
  5793                           
  5794                           ;ext_eeprom.c: 37:     while(*str!='\0'){
  5795     14B5  0830               	movf	ext_eeprom_store_str@str,w
  5796     14B6  0084               	movwf	4
  5797     14B7  1383               	bcf	3,7	;select IRP bank0
  5798     14B8  0800               	movf	0,w
  5799     14B9  1D03               	btfss	3,2
  5800     14BA  2CBC               	goto	u2001
  5801     14BB  2CBD               	goto	u2000
  5802     14BC                     u2001:
  5803     14BC  2CA5               	goto	l2654
  5804     14BD                     u2000:
  5805     14BD                     l546:
  5806     14BD  0008               	return
  5807     14BE                     __end_of_ext_eeprom_store_str:
  5808                           
  5809                           	psect	text13
  5810     0807                     __ptext13:	
  5811 ;; *************** function _write_external_eeprom *****************
  5812 ;; Defined at:
  5813 ;;		line 10 in file "ext_eeprom.c"
  5814 ;; Parameters:    Size  Location     Type
  5815 ;;  address         1    wreg     unsigned char 
  5816 ;;  data            1   12[BANK0 ] unsigned char 
  5817 ;; Auto vars:     Size  Location     Type
  5818 ;;  address         1   15[BANK0 ] unsigned char 
  5819 ;;  wait            2   13[BANK0 ] unsigned int 
  5820 ;; Return value:  Size  Location     Type
  5821 ;;                  1    wreg      void 
  5822 ;; Registers used:
  5823 ;;		wreg, status,2, status,0, pclath, cstack
  5824 ;; Tracked objects:
  5825 ;;		On entry : 0/0
  5826 ;;		On exit  : 0/0
  5827 ;;		Unchanged: 0/0
  5828 ;; Data sizes:     COMMON   BANK0   BANK1   BANK3   BANK2
  5829 ;;      Params:         0       1       0       0       0
  5830 ;;      Locals:         0       3       0       0       0
  5831 ;;      Temps:          0       0       0       0       0
  5832 ;;      Totals:         0       4       0       0       0
  5833 ;;Total ram usage:        4 bytes
  5834 ;; Hardware stack levels used: 1
  5835 ;; Hardware stack levels required when called: 2
  5836 ;; This function calls:
  5837 ;;		_i2c_start
  5838 ;;		_i2c_stop
  5839 ;;		_i2c_write
  5840 ;; This function is called by:
  5841 ;;		_ext_eeprom_store_str
  5842 ;; This function uses a non-reentrant model
  5843 ;;
  5844                           
  5845     0807                     _write_external_eeprom:	
  5846                           ;psect for function _write_external_eeprom
  5847                           
  5848                           
  5849                           ;incstack = 0
  5850                           ; Regs used in _write_external_eeprom: [wreg+status,2+status,0+pclath+cstack]
  5851                           ;write_external_eeprom@address stored from wreg
  5852     0807  1283               	bcf	3,5	;RP0=0, select bank0
  5853     0808  1303               	bcf	3,6	;RP1=0, select bank0
  5854     0809  00AF               	movwf	write_external_eeprom@address
  5855     080A                     l2404:
  5856                           
  5857                           ;ext_eeprom.c: 10: void write_external_eeprom(unsigned char address, unsigned char data)
      +                          ;ext_eeprom.c: 11: {;ext_eeprom.c: 12:     i2c_start();
  5858     080A  160A  118A  23CD  120A  158A  	fcall	_i2c_start
  5859                           
  5860                           ;ext_eeprom.c: 13:     i2c_write(0xA0);
  5861     080F  30A0               	movlw	160
  5862     0810  160A  118A  2424  120A  158A  	fcall	_i2c_write
  5863                           
  5864                           ;ext_eeprom.c: 14:     i2c_write(address);
  5865     0815  1283               	bcf	3,5	;RP0=0, select bank0
  5866     0816  1303               	bcf	3,6	;RP1=0, select bank0
  5867     0817  082F               	movf	write_external_eeprom@address,w
  5868     0818  160A  118A  2424  120A  158A  	fcall	_i2c_write
  5869                           
  5870                           ;ext_eeprom.c: 15:     i2c_write(data);
  5871     081D  1283               	bcf	3,5	;RP0=0, select bank0
  5872     081E  1303               	bcf	3,6	;RP1=0, select bank0
  5873     081F  082C               	movf	write_external_eeprom@data,w
  5874     0820  160A  118A  2424  120A  158A  	fcall	_i2c_write
  5875                           
  5876                           ;ext_eeprom.c: 16:     i2c_stop();
  5877     0825  160A  118A  23D6  120A  158A  	fcall	_i2c_stop
  5878     082A                     l2406:
  5879                           
  5880                           ;ext_eeprom.c: 17:     for (unsigned int wait = 3000;wait--;);
  5881     082A  30B8               	movlw	184
  5882     082B  1283               	bcf	3,5	;RP0=0, select bank0
  5883     082C  1303               	bcf	3,6	;RP1=0, select bank0
  5884     082D  00AD               	movwf	write_external_eeprom@wait
  5885     082E  300B               	movlw	11
  5886     082F  00AE               	movwf	write_external_eeprom@wait+1
  5887     0830                     l2408:
  5888     0830  3001               	movlw	1
  5889     0831  02AD               	subwf	write_external_eeprom@wait,f
  5890     0832  3000               	movlw	0
  5891     0833  1C03               	skipc
  5892     0834  03AE               	decf	write_external_eeprom@wait+1,f
  5893     0835  02AE               	subwf	write_external_eeprom@wait+1,f
  5894     0836  0A2D               	incf	write_external_eeprom@wait,w
  5895     0837  1D03               	skipz
  5896     0838  283D               	goto	u1531
  5897     0839  0A2E               	incf	write_external_eeprom@wait+1,w
  5898     083A  1D03               	btfss	3,2
  5899     083B  283D               	goto	u1531
  5900     083C  283E               	goto	u1530
  5901     083D                     u1531:
  5902     083D  2830               	goto	l2408
  5903     083E                     u1530:
  5904     083E                     l537:
  5905     083E  0008               	return
  5906     083F                     __end_of_write_external_eeprom:
  5907                           
  5908                           	psect	text14
  5909     0CCC                     __ptext14:	
  5910 ;; *************** function _download_log *****************
  5911 ;; Defined at:
  5912 ;;		line 494 in file "bb.c"
  5913 ;; Parameters:    Size  Location     Type
  5914 ;;		None
  5915 ;; Auto vars:     Size  Location     Type
  5916 ;;  i               2   26[BANK0 ] int 
  5917 ;;  logData        11   14[BANK0 ] unsigned char [11]
  5918 ;;  add             1   25[BANK0 ] unsigned char 
  5919 ;; Return value:  Size  Location     Type
  5920 ;;                  1    wreg      unsigned char 
  5921 ;; Registers used:
  5922 ;;		wreg, fsr0l, fsr0h, status,2, status,0, pclath, btemp1, cstack
  5923 ;; Tracked objects:
  5924 ;;		On entry : 0/0
  5925 ;;		On exit  : 0/0
  5926 ;;		Unchanged: 0/0
  5927 ;; Data sizes:     COMMON   BANK0   BANK1   BANK3   BANK2
  5928 ;;      Params:         0       0       0       0       0
  5929 ;;      Locals:         0      14       0       0       0
  5930 ;;      Temps:          0       0       0       0       0
  5931 ;;      Totals:         0      14       0       0       0
  5932 ;;Total ram usage:       14 bytes
  5933 ;; Hardware stack levels used: 1
  5934 ;; Hardware stack levels required when called: 3
  5935 ;; This function calls:
  5936 ;;		___bmul
  5937 ;;		_clcd_print
  5938 ;;		_puts
  5939 ;;		_read_external_eeprom
  5940 ;; This function is called by:
  5941 ;;		_main
  5942 ;; This function uses a non-reentrant model
  5943 ;;
  5944                           
  5945     0CCC                     _download_log:	
  5946                           ;psect for function _download_log
  5947                           
  5948     0CCC                     l4122:	
  5949                           ;incstack = 0
  5950                           ; Regs used in _download_log: [wreg-fsr0h+status,2+status,0+pclath+btemp1+cstack]
  5951                           
  5952                           
  5953                           ;bb.c: 496:      unsigned char logData[11];;bb.c: 497:      unsigned char add=0;
  5954     0CCC  1283               	bcf	3,5	;RP0=0, select bank0
  5955     0CCD  1303               	bcf	3,6	;RP1=0, select bank0
  5956     0CCE  01B9               	clrf	download_log@add
  5957     0CCF                     l4124:
  5958                           
  5959                           ;bb.c: 498:      static int tempF;;bb.c: 500:      tempF=event_count;
  5960     0CCF  086B               	movf	_event_count+1,w
  5961     0CD0  1683               	bsf	3,5	;RP0=1, select bank1
  5962     0CD1  1303               	bcf	3,6	;RP1=0, select bank1
  5963     0CD2  00B0               	movwf	(download_log@tempF+1)^(0+128)
  5964     0CD3  1283               	bcf	3,5	;RP0=0, select bank0
  5965     0CD4  1303               	bcf	3,6	;RP1=0, select bank0
  5966     0CD5  086A               	movf	_event_count,w
  5967     0CD6  1683               	bsf	3,5	;RP0=1, select bank1
  5968     0CD7  1303               	bcf	3,6	;RP1=0, select bank1
  5969     0CD8  00AF               	movwf	download_log@tempF^(0+128)
  5970     0CD9                     l4126:
  5971                           
  5972                           ;bb.c: 503:       if(event_count!=-1 ){
  5973     0CD9  1283               	bcf	3,5	;RP0=0, select bank0
  5974     0CDA  1303               	bcf	3,6	;RP1=0, select bank0
  5975     0CDB  0A6A               	incf	_event_count,w
  5976     0CDC  1D03               	skipz
  5977     0CDD  2CE3               	goto	u3780
  5978     0CDE  0A6B               	incf	_event_count+1,w
  5979     0CDF  1903               	btfsc	3,2
  5980     0CE0  2CE2               	goto	u3781
  5981     0CE1  2CE3               	goto	u3780
  5982     0CE2                     u3781:
  5983     0CE2  2D59               	goto	l4162
  5984     0CE3                     u3780:
  5985     0CE3                     l4128:
  5986                           
  5987                           ;bb.c: 505:      if(!Donce){
  5988     0CE3  0850               	movf	_Donce,w
  5989     0CE4  0451               	iorwf	_Donce+1,w
  5990     0CE5  1D03               	btfss	3,2
  5991     0CE6  2CE8               	goto	u3791
  5992     0CE7  2CE9               	goto	u3790
  5993     0CE8                     u3791:
  5994     0CE8  2D4D               	goto	l4160
  5995     0CE9                     u3790:
  5996     0CE9  2D41               	goto	l4156
  5997     0CEA                     l4132:
  5998                           
  5999                           ;bb.c: 508:       for(int i=0;i<10;i++){
  6000     0CEA  1283               	bcf	3,5	;RP0=0, select bank0
  6001     0CEB  1303               	bcf	3,6	;RP1=0, select bank0
  6002     0CEC  01BA               	clrf	download_log@i
  6003     0CED  01BB               	clrf	download_log@i+1
  6004     0CEE                     l4138:
  6005                           
  6006                           ;bb.c: 509:       logData[i]=read_external_eeprom(add+(next2*10));
  6007     0CEE  1283               	bcf	3,5	;RP0=0, select bank0
  6008     0CEF  1303               	bcf	3,6	;RP1=0, select bank0
  6009     0CF0  083A               	movf	download_log@i,w
  6010     0CF1  3E2E               	addlw	(low (download_log@logData| 0))& (0+255)
  6011     0CF2  0084               	movwf	4
  6012     0CF3  300A               	movlw	10
  6013     0CF4  00F2               	movwf	___bmul@multiplicand
  6014     0CF5  1683               	bsf	3,5	;RP0=1, select bank1
  6015     0CF6  1303               	bcf	3,6	;RP1=0, select bank1
  6016     0CF7  0831               	movf	_next2^(0+128),w
  6017     0CF8  160A  118A  2452  120A  158A  	fcall	___bmul
  6018     0CFD  1283               	bcf	3,5	;RP0=0, select bank0
  6019     0CFE  1303               	bcf	3,6	;RP1=0, select bank0
  6020     0CFF  0739               	addwf	download_log@add,w
  6021     0D00  160A  118A  26DB  120A  158A  	fcall	_read_external_eeprom
  6022     0D05  1383               	bcf	3,7	;select IRP bank0
  6023     0D06  0080               	movwf	0
  6024     0D07                     l4140:
  6025                           
  6026                           ;bb.c: 510:       add++;
  6027     0D07  3001               	movlw	1
  6028     0D08  1283               	bcf	3,5	;RP0=0, select bank0
  6029     0D09  1303               	bcf	3,6	;RP1=0, select bank0
  6030     0D0A  07B9               	addwf	download_log@add,f
  6031     0D0B                     l4142:
  6032                           
  6033                           ;bb.c: 512:       }
  6034     0D0B  3001               	movlw	1
  6035     0D0C  07BA               	addwf	download_log@i,f
  6036     0D0D  1803               	skipnc
  6037     0D0E  0ABB               	incf	download_log@i+1,f
  6038     0D0F  3000               	movlw	0
  6039     0D10  07BB               	addwf	download_log@i+1,f
  6040     0D11                     l4144:
  6041     0D11  083B               	movf	download_log@i+1,w
  6042     0D12  3A80               	xorlw	128
  6043     0D13  00FF               	movwf	btemp1
  6044     0D14  3080               	movlw	128
  6045     0D15  027F               	subwf	btemp1,w
  6046     0D16  1D03               	skipz
  6047     0D17  2D1A               	goto	u3805
  6048     0D18  300A               	movlw	10
  6049     0D19  023A               	subwf	download_log@i,w
  6050     0D1A                     u3805:
  6051     0D1A  1C03               	skipc
  6052     0D1B  2D1D               	goto	u3801
  6053     0D1C  2D1E               	goto	u3800
  6054     0D1D                     u3801:
  6055     0D1D  2CEE               	goto	l4138
  6056     0D1E                     u3800:
  6057     0D1E                     l4146:
  6058                           
  6059                           ;bb.c: 514:      logData[10]='\0';
  6060     0D1E  1283               	bcf	3,5	;RP0=0, select bank0
  6061     0D1F  1303               	bcf	3,6	;RP1=0, select bank0
  6062     0D20  01B8               	clrf	download_log@logData+10
  6063     0D21                     l4148:
  6064                           
  6065                           ;bb.c: 515:      puts(logData);
  6066     0D21  302E               	movlw	(low (download_log@logData| 0))& (0+255)
  6067     0D22  00F3               	movwf	puts@s
  6068     0D23  3000               	movlw	0
  6069     0D24  00F4               	movwf	puts@s+1
  6070     0D25  160A  118A  2569  120A  158A  	fcall	_puts
  6071     0D2A                     l4150:
  6072                           
  6073                           ;bb.c: 516:      puts("\n");
  6074     0D2A  30A6               	movlw	low (STR_39| (0+32768))
  6075     0D2B  00F3               	movwf	puts@s
  6076     0D2C  3086               	movlw	high (STR_39| (0+32768))
  6077     0D2D  00F4               	movwf	puts@s+1
  6078     0D2E  160A  118A  2569  120A  158A  	fcall	_puts
  6079     0D33                     l4152:
  6080                           
  6081                           ;bb.c: 517:      tempF--;
  6082     0D33  30FF               	movlw	255
  6083     0D34  1683               	bsf	3,5	;RP0=1, select bank1
  6084     0D35  1303               	bcf	3,6	;RP1=0, select bank1
  6085     0D36  07AF               	addwf	download_log@tempF^(0+128),f
  6086     0D37  1803               	skipnc
  6087     0D38  0AB0               	incf	(download_log@tempF+1)^(0+128),f
  6088     0D39  30FF               	movlw	255
  6089     0D3A  07B0               	addwf	(download_log@tempF+1)^(0+128),f
  6090     0D3B                     l4154:
  6091                           
  6092                           ;bb.c: 518:      next2++;
  6093     0D3B  3001               	movlw	1
  6094     0D3C  07B1               	addwf	_next2^(0+128),f
  6095     0D3D  1803               	skipnc
  6096     0D3E  0AB2               	incf	(_next2+1)^(0+128),f
  6097     0D3F  3000               	movlw	0
  6098     0D40  07B2               	addwf	(_next2+1)^(0+128),f
  6099     0D41                     l4156:
  6100                           
  6101                           ;bb.c: 506:      while(tempF>=0){
  6102     0D41  1683               	bsf	3,5	;RP0=1, select bank1
  6103     0D42  1303               	bcf	3,6	;RP1=0, select bank1
  6104     0D43  1FB0               	btfss	(download_log@tempF+1)^(0+128),7
  6105     0D44  2D46               	goto	u3811
  6106     0D45  2D47               	goto	u3810
  6107     0D46                     u3811:
  6108     0D46  2CEA               	goto	l4132
  6109     0D47                     u3810:
  6110     0D47                     l4158:
  6111                           
  6112                           ;bb.c: 524:      Donce=1;
  6113     0D47  3001               	movlw	1
  6114     0D48  1283               	bcf	3,5	;RP0=0, select bank0
  6115     0D49  1303               	bcf	3,6	;RP1=0, select bank0
  6116     0D4A  00D0               	movwf	_Donce
  6117     0D4B  3000               	movlw	0
  6118     0D4C  00D1               	movwf	_Donce+1
  6119     0D4D                     l4160:
  6120                           
  6121                           ;bb.c: 527:       clcd_print("Downloaded log",(0x80 + 0));
  6122     0D4D  3025               	movlw	low (STR_40| (0+32768))
  6123     0D4E  00A0               	movwf	clcd_print@str
  6124     0D4F  3086               	movlw	high (STR_40| (0+32768))
  6125     0D50  00A1               	movwf	clcd_print@str+1
  6126     0D51  3080               	movlw	128
  6127     0D52  00A2               	movwf	clcd_print@addr
  6128     0D53  160A  118A  2675  120A  158A  	fcall	_clcd_print
  6129                           
  6130                           ;bb.c: 529:       }
  6131     0D58  2D7B               	goto	l335
  6132     0D59                     l4162:
  6133                           
  6134                           ;bb.c: 531:           if(!Donce){
  6135     0D59  0850               	movf	_Donce,w
  6136     0D5A  0451               	iorwf	_Donce+1,w
  6137     0D5B  1D03               	btfss	3,2
  6138     0D5C  2D5E               	goto	u3821
  6139     0D5D  2D5F               	goto	u3820
  6140     0D5E                     u3821:
  6141     0D5E  2D7B               	goto	l335
  6142     0D5F                     u3820:
  6143     0D5F                     l4164:
  6144                           
  6145                           ;bb.c: 532:             puts("NO LOGS TO DOWNLOAD !");
  6146     0D5F  3000               	movlw	low (STR_41| (0+32768))
  6147     0D60  00F3               	movwf	puts@s
  6148     0D61  3085               	movlw	high (STR_41| (0+32768))
  6149     0D62  00F4               	movwf	puts@s+1
  6150     0D63  160A  118A  2569  120A  158A  	fcall	_puts
  6151                           
  6152                           ;bb.c: 533:             clcd_print("No logs to dwnload !",(0x80 + 0));
  6153     0D68  3016               	movlw	low (STR_42| (0+32768))
  6154     0D69  1283               	bcf	3,5	;RP0=0, select bank0
  6155     0D6A  1303               	bcf	3,6	;RP1=0, select bank0
  6156     0D6B  00A0               	movwf	clcd_print@str
  6157     0D6C  3085               	movlw	high (STR_42| (0+32768))
  6158     0D6D  00A1               	movwf	clcd_print@str+1
  6159     0D6E  3080               	movlw	128
  6160     0D6F  00A2               	movwf	clcd_print@addr
  6161     0D70  160A  118A  2675  120A  158A  	fcall	_clcd_print
  6162     0D75                     l4166:
  6163                           
  6164                           ;bb.c: 534:             Donce=1;
  6165     0D75  3001               	movlw	1
  6166     0D76  1283               	bcf	3,5	;RP0=0, select bank0
  6167     0D77  1303               	bcf	3,6	;RP1=0, select bank0
  6168     0D78  00D0               	movwf	_Donce
  6169     0D79  3000               	movlw	0
  6170     0D7A  00D1               	movwf	_Donce+1
  6171     0D7B                     l335:
  6172     0D7B  0008               	return
  6173     0D7C                     __end_of_download_log:
  6174                           
  6175                           	psect	text15
  6176     16DB                     __ptext15:	
  6177 ;; *************** function _read_external_eeprom *****************
  6178 ;; Defined at:
  6179 ;;		line 20 in file "ext_eeprom.c"
  6180 ;; Parameters:    Size  Location     Type
  6181 ;;  address         1    wreg     unsigned char 
  6182 ;; Auto vars:     Size  Location     Type
  6183 ;;  address         1   12[BANK0 ] unsigned char 
  6184 ;;  data            1   13[BANK0 ] unsigned char 
  6185 ;; Return value:  Size  Location     Type
  6186 ;;                  1    wreg      unsigned char 
  6187 ;; Registers used:
  6188 ;;		wreg, status,2, status,0, pclath, cstack
  6189 ;; Tracked objects:
  6190 ;;		On entry : 0/0
  6191 ;;		On exit  : 0/0
  6192 ;;		Unchanged: 0/0
  6193 ;; Data sizes:     COMMON   BANK0   BANK1   BANK3   BANK2
  6194 ;;      Params:         0       0       0       0       0
  6195 ;;      Locals:         0       2       0       0       0
  6196 ;;      Temps:          0       0       0       0       0
  6197 ;;      Totals:         0       2       0       0       0
  6198 ;;Total ram usage:        2 bytes
  6199 ;; Hardware stack levels used: 1
  6200 ;; Hardware stack levels required when called: 1
  6201 ;; This function calls:
  6202 ;;		_i2c_read
  6203 ;;		_i2c_rep_start
  6204 ;;		_i2c_start
  6205 ;;		_i2c_stop
  6206 ;;		_i2c_write
  6207 ;; This function is called by:
  6208 ;;		_view_log
  6209 ;;		_download_log
  6210 ;; This function uses a non-reentrant model
  6211 ;;
  6212                           
  6213     16DB                     _read_external_eeprom:	
  6214                           ;psect for function _read_external_eeprom
  6215                           
  6216                           
  6217                           ;incstack = 0
  6218                           ; Regs used in _read_external_eeprom: [wreg+status,2+status,0+pclath+cstack]
  6219                           ;read_external_eeprom@address stored from wreg
  6220     16DB  1283               	bcf	3,5	;RP0=0, select bank0
  6221     16DC  1303               	bcf	3,6	;RP1=0, select bank0
  6222     16DD  00AC               	movwf	read_external_eeprom@address
  6223     16DE                     l2608:
  6224                           
  6225                           ;ext_eeprom.c: 20: unsigned char read_external_eeprom(unsigned char address);ext_eeprom.
      +                          c: 21: {;ext_eeprom.c: 22:     unsigned char data;;ext_eeprom.c: 24:     i2c_start();
  6226     16DE  160A  118A  23CD  160A  118A  	fcall	_i2c_start
  6227                           
  6228                           ;ext_eeprom.c: 25:     i2c_write(0xA0);
  6229     16E3  30A0               	movlw	160
  6230     16E4  160A  118A  2424  160A  118A  	fcall	_i2c_write
  6231                           
  6232                           ;ext_eeprom.c: 26:     i2c_write(address);
  6233     16E9  1283               	bcf	3,5	;RP0=0, select bank0
  6234     16EA  1303               	bcf	3,6	;RP1=0, select bank0
  6235     16EB  082C               	movf	read_external_eeprom@address,w
  6236     16EC  160A  118A  2424  160A  118A  	fcall	_i2c_write
  6237                           
  6238                           ;ext_eeprom.c: 27:     i2c_rep_start();
  6239     16F1  160A  118A  23F4  160A  118A  	fcall	_i2c_rep_start
  6240                           
  6241                           ;ext_eeprom.c: 28:     i2c_write(0xA1);
  6242     16F6  30A1               	movlw	161
  6243     16F7  160A  118A  2424  160A  118A  	fcall	_i2c_write
  6244                           
  6245                           ;ext_eeprom.c: 29:     data = i2c_read(0);
  6246     16FC  3000               	movlw	0
  6247     16FD  160A  118A  24DE  160A  118A  	fcall	_i2c_read
  6248     1702  1283               	bcf	3,5	;RP0=0, select bank0
  6249     1703  1303               	bcf	3,6	;RP1=0, select bank0
  6250     1704  00AD               	movwf	read_external_eeprom@data
  6251                           
  6252                           ;ext_eeprom.c: 30:     i2c_stop();
  6253     1705  160A  118A  23D6  160A  118A  	fcall	_i2c_stop
  6254     170A                     l2610:
  6255                           
  6256                           ;ext_eeprom.c: 32:     return data;
  6257     170A  1283               	bcf	3,5	;RP0=0, select bank0
  6258     170B  1303               	bcf	3,6	;RP1=0, select bank0
  6259     170C  082D               	movf	read_external_eeprom@data,w
  6260     170D                     l540:
  6261     170D  0008               	return
  6262     170E                     __end_of_read_external_eeprom:
  6263                           
  6264                           	psect	text16
  6265     1452                     __ptext16:	
  6266 ;; *************** function ___bmul *****************
  6267 ;; Defined at:
  6268 ;;		line 4 in file "E:\embeded Sof\pic\sources\c99\common\Umul8.c"
  6269 ;; Parameters:    Size  Location     Type
  6270 ;;  multiplier      1    wreg     unsigned char 
  6271 ;;  multiplicand    1    2[COMMON] unsigned char 
  6272 ;; Auto vars:     Size  Location     Type
  6273 ;;  multiplier      1    4[COMMON] unsigned char 
  6274 ;;  product         1    3[COMMON] unsigned char 
  6275 ;; Return value:  Size  Location     Type
  6276 ;;                  1    wreg      unsigned char 
  6277 ;; Registers used:
  6278 ;;		wreg, status,2, status,0
  6279 ;; Tracked objects:
  6280 ;;		On entry : 0/0
  6281 ;;		On exit  : 0/0
  6282 ;;		Unchanged: 0/0
  6283 ;; Data sizes:     COMMON   BANK0   BANK1   BANK3   BANK2
  6284 ;;      Params:         1       0       0       0       0
  6285 ;;      Locals:         2       0       0       0       0
  6286 ;;      Temps:          0       0       0       0       0
  6287 ;;      Totals:         3       0       0       0       0
  6288 ;;Total ram usage:        3 bytes
  6289 ;; Hardware stack levels used: 1
  6290 ;; Hardware stack levels required when called: 1
  6291 ;; This function calls:
  6292 ;;		Nothing
  6293 ;; This function is called by:
  6294 ;;		_view_log
  6295 ;;		_log_car_event
  6296 ;;		_download_log
  6297 ;; This function uses a non-reentrant model
  6298 ;;
  6299                           
  6300     1452                     ___bmul:	
  6301                           ;psect for function ___bmul
  6302                           
  6303                           
  6304                           ;incstack = 0
  6305                           ; Regs used in ___bmul: [wreg+status,2+status,0]
  6306                           ;___bmul@multiplier stored from wreg
  6307     1452  00F4               	movwf	___bmul@multiplier
  6308     1453                     l2680:
  6309     1453  01F3               	clrf	___bmul@product
  6310     1454                     l2682:
  6311     1454  1C74               	btfss	___bmul@multiplier,0
  6312     1455  2C57               	goto	u2061
  6313     1456  2C58               	goto	u2060
  6314     1457                     u2061:
  6315     1457  2C5A               	goto	l2686
  6316     1458                     u2060:
  6317     1458                     l2684:
  6318     1458  0872               	movf	___bmul@multiplicand,w
  6319     1459  07F3               	addwf	___bmul@product,f
  6320     145A                     l2686:
  6321     145A  1003               	clrc
  6322     145B  0DF2               	rlf	___bmul@multiplicand,f
  6323     145C                     l2688:
  6324     145C  1003               	clrc
  6325     145D  0CF4               	rrf	___bmul@multiplier,f
  6326     145E  0874               	movf	___bmul@multiplier,w
  6327     145F  1D03               	btfss	3,2
  6328     1460  2C62               	goto	u2071
  6329     1461  2C63               	goto	u2070
  6330     1462                     u2071:
  6331     1462  2C54               	goto	l2682
  6332     1463                     u2070:
  6333     1463                     l2690:
  6334     1463  0873               	movf	___bmul@product,w
  6335     1464                     l693:
  6336     1464  0008               	return
  6337     1465                     __end_of___bmul:
  6338                           
  6339                           	psect	text17
  6340     1643                     __ptext17:	
  6341 ;; *************** function _disp_dashboard *****************
  6342 ;; Defined at:
  6343 ;;		line 57 in file "bb.c"
  6344 ;; Parameters:    Size  Location     Type
  6345 ;;  event           1   15[BANK0 ] PTR unsigned char 
  6346 ;;		 -> event(3), 
  6347 ;; Auto vars:     Size  Location     Type
  6348 ;;		None
  6349 ;; Return value:  Size  Location     Type
  6350 ;;                  1    wreg      void 
  6351 ;; Registers used:
  6352 ;;		wreg, fsr0l, fsr0h, status,2, status,0, pclath, btemp1, cstack
  6353 ;; Tracked objects:
  6354 ;;		On entry : 0/0
  6355 ;;		On exit  : 0/0
  6356 ;;		Unchanged: 0/0
  6357 ;; Data sizes:     COMMON   BANK0   BANK1   BANK3   BANK2
  6358 ;;      Params:         0       1       0       0       0
  6359 ;;      Locals:         0       0       0       0       0
  6360 ;;      Temps:          0       0       0       0       0
  6361 ;;      Totals:         0       1       0       0       0
  6362 ;;Total ram usage:        1 bytes
  6363 ;; Hardware stack levels used: 1
  6364 ;; Hardware stack levels required when called: 4
  6365 ;; This function calls:
  6366 ;;		_clcd_print
  6367 ;;		_display_time
  6368 ;;		_getPotVal
  6369 ;; This function is called by:
  6370 ;;		_main
  6371 ;; This function uses a non-reentrant model
  6372 ;;
  6373                           
  6374     1643                     _disp_dashboard:	
  6375                           ;psect for function _disp_dashboard
  6376                           
  6377     1643                     l3674:	
  6378                           ;incstack = 0
  6379                           ; Regs used in _disp_dashboard: [wreg-fsr0h+status,2+status,0+pclath+btemp1+cstack]
  6380                           
  6381                           
  6382                           ;bb.c: 58:      display_time();
  6383     1643  120A  158A  211F  160A  118A  	fcall	_display_time
  6384                           
  6385                           ;bb.c: 59:     getPotVal();
  6386     1648  120A  158A  23C5  160A  118A  	fcall	_getPotVal
  6387     164D                     l3676:
  6388                           
  6389                           ;bb.c: 60:     clcd_print(" TIME     E  SP",(0x80 + 0));
  6390     164D  3074               	movlw	low ((STR_23+1)| (0+32768))
  6391     164E  1283               	bcf	3,5	;RP0=0, select bank0
  6392     164F  1303               	bcf	3,6	;RP1=0, select bank0
  6393     1650  00A0               	movwf	clcd_print@str
  6394     1651  3085               	movlw	high ((STR_23+1)| (0+32768))
  6395     1652  00A1               	movwf	clcd_print@str+1
  6396     1653  3080               	movlw	128
  6397     1654  00A2               	movwf	clcd_print@addr
  6398     1655  160A  118A  2675  160A  118A  	fcall	_clcd_print
  6399     165A                     l3678:
  6400                           
  6401                           ;bb.c: 61:     clcd_print(event, (0xC0 + 10));
  6402     165A  1283               	bcf	3,5	;RP0=0, select bank0
  6403     165B  1303               	bcf	3,6	;RP1=0, select bank0
  6404     165C  082F               	movf	disp_dashboard@event,w
  6405     165D  00A0               	movwf	clcd_print@str
  6406     165E  3000               	movlw	0
  6407     165F  00A1               	movwf	clcd_print@str+1
  6408     1660  30CA               	movlw	202
  6409     1661  00A2               	movwf	clcd_print@addr
  6410     1662  160A  118A  2675  160A  118A  	fcall	_clcd_print
  6411     1667                     l3680:
  6412                           
  6413                           ;bb.c: 62:     clcd_print(potVal,(0xC0 + 13));
  6414     1667  3064               	movlw	(low (_potVal| 0))& (0+255)
  6415     1668  1283               	bcf	3,5	;RP0=0, select bank0
  6416     1669  1303               	bcf	3,6	;RP1=0, select bank0
  6417     166A  00A0               	movwf	clcd_print@str
  6418     166B  3000               	movlw	0
  6419     166C  00A1               	movwf	clcd_print@str+1
  6420     166D  30CD               	movlw	205
  6421     166E  00A2               	movwf	clcd_print@addr
  6422     166F  160A  118A  2675  160A  118A  	fcall	_clcd_print
  6423     1674                     l197:
  6424     1674  0008               	return
  6425     1675                     __end_of_disp_dashboard:
  6426                           
  6427                           	psect	text18
  6428     0BC5                     __ptext18:	
  6429 ;; *************** function _getPotVal *****************
  6430 ;; Defined at:
  6431 ;;		line 34 in file "main.c"
  6432 ;; Parameters:    Size  Location     Type
  6433 ;;		None
  6434 ;; Auto vars:     Size  Location     Type
  6435 ;;  temp            4   10[BANK0 ] unsigned long 
  6436 ;;  new_mapped_v    1   14[BANK0 ] unsigned char 
  6437 ;; Return value:  Size  Location     Type
  6438 ;;                  1    wreg      void 
  6439 ;; Registers used:
  6440 ;;		wreg, status,2, status,0, pclath, cstack
  6441 ;; Tracked objects:
  6442 ;;		On entry : 0/0
  6443 ;;		On exit  : 0/0
  6444 ;;		Unchanged: 0/0
  6445 ;; Data sizes:     COMMON   BANK0   BANK1   BANK3   BANK2
  6446 ;;      Params:         0       0       0       0       0
  6447 ;;      Locals:         0       5       0       0       0
  6448 ;;      Temps:          0       2       0       0       0
  6449 ;;      Totals:         0       7       0       0       0
  6450 ;;Total ram usage:        7 bytes
  6451 ;; Hardware stack levels used: 1
  6452 ;; Hardware stack levels required when called: 2
  6453 ;; This function calls:
  6454 ;;		___awdiv
  6455 ;;		___awmod
  6456 ;;		___lldiv
  6457 ;;		___lmul
  6458 ;;		_read_adc
  6459 ;; This function is called by:
  6460 ;;		_disp_dashboard
  6461 ;; This function uses a non-reentrant model
  6462 ;;
  6463                           
  6464     0BC5                     _getPotVal:	
  6465                           ;psect for function _getPotVal
  6466                           
  6467     0BC5                     l3584:	
  6468                           ;incstack = 0
  6469                           ; Regs used in _getPotVal: [wreg+status,2+status,0+pclath+cstack]
  6470                           
  6471                           
  6472                           ;main.c: 35: 
  6473     0BC5  160A  118A  2440  120A  158A  	fcall	_read_adc
  6474     0BCA  0873               	movf	?_read_adc+1,w
  6475     0BCB  1683               	bsf	3,5	;RP0=1, select bank1
  6476     0BCC  1303               	bcf	3,6	;RP1=0, select bank1
  6477     0BCD  00BC               	movwf	(_pot_value+1)^(0+128)
  6478     0BCE  0872               	movf	?_read_adc,w
  6479     0BCF  00BB               	movwf	_pot_value^(0+128)
  6480     0BD0                     l3586:
  6481                           
  6482                           ;main.c: 36:     unsigned char control_flag=0x01;;main.c: 38:     unsigned char key,k2;
  6483     0BD0  083B               	movf	_pot_value^(0+128),w
  6484     0BD1  1283               	bcf	3,5	;RP0=0, select bank0
  6485     0BD2  1303               	bcf	3,6	;RP1=0, select bank0
  6486     0BD3  00A0               	movwf	___lmul@multiplier
  6487     0BD4  1683               	bsf	3,5	;RP0=1, select bank1
  6488     0BD5  1303               	bcf	3,6	;RP1=0, select bank1
  6489     0BD6  083C               	movf	(_pot_value+1)^(0+128),w
  6490     0BD7  1283               	bcf	3,5	;RP0=0, select bank0
  6491     0BD8  1303               	bcf	3,6	;RP1=0, select bank0
  6492     0BD9  00A1               	movwf	___lmul@multiplier+1
  6493     0BDA  01A2               	clrf	___lmul@multiplier+2
  6494     0BDB  01A3               	clrf	___lmul@multiplier+3
  6495     0BDC  3000               	movlw	0
  6496     0BDD  00A7               	movwf	___lmul@multiplicand+3
  6497     0BDE  3000               	movlw	0
  6498     0BDF  00A6               	movwf	___lmul@multiplicand+2
  6499     0BE0  3000               	movlw	0
  6500     0BE1  00A5               	movwf	___lmul@multiplicand+1
  6501     0BE2  3063               	movlw	99
  6502     0BE3  00A4               	movwf	___lmul@multiplicand
  6503     0BE4  120A  158A  203F  120A  158A  	fcall	___lmul
  6504     0BE9  1283               	bcf	3,5	;RP0=0, select bank0
  6505     0BEA  1303               	bcf	3,6	;RP1=0, select bank0
  6506     0BEB  0823               	movf	?___lmul+3,w
  6507     0BEC  00AD               	movwf	getPotVal@temp+3
  6508     0BED  0822               	movf	?___lmul+2,w
  6509     0BEE  00AC               	movwf	getPotVal@temp+2
  6510     0BEF  0821               	movf	?___lmul+1,w
  6511     0BF0  00AB               	movwf	getPotVal@temp+1
  6512     0BF1  0820               	movf	?___lmul,w
  6513     0BF2  00AA               	movwf	getPotVal@temp
  6514     0BF3                     l3588:
  6515                           
  6516                           ;main.c: 39:     unsigned char menu_pos=0;
  6517     0BF3  3000               	movlw	0
  6518     0BF4  00A3               	movwf	___lldiv@divisor+3
  6519     0BF5  3000               	movlw	0
  6520     0BF6  00A2               	movwf	___lldiv@divisor+2
  6521     0BF7  3003               	movlw	3
  6522     0BF8  00A1               	movwf	___lldiv@divisor+1
  6523     0BF9  30FF               	movlw	255
  6524     0BFA  00A0               	movwf	___lldiv@divisor
  6525     0BFB  082D               	movf	getPotVal@temp+3,w
  6526     0BFC  00A7               	movwf	___lldiv@dividend+3
  6527     0BFD  082C               	movf	getPotVal@temp+2,w
  6528     0BFE  00A6               	movwf	___lldiv@dividend+2
  6529     0BFF  082B               	movf	getPotVal@temp+1,w
  6530     0C00  00A5               	movwf	___lldiv@dividend+1
  6531     0C01  082A               	movf	getPotVal@temp,w
  6532     0C02  00A4               	movwf	___lldiv@dividend
  6533     0C03  120A  158A  2280  120A  158A  	fcall	___lldiv
  6534     0C08  1283               	bcf	3,5	;RP0=0, select bank0
  6535     0C09  1303               	bcf	3,6	;RP1=0, select bank0
  6536     0C0A  0820               	movf	?___lldiv,w
  6537     0C0B  00AE               	movwf	getPotVal@new_mapped_value
  6538     0C0C                     l3590:
  6539                           
  6540                           ;main.c: 40:     static int hold=0;
  6541     0C0C  300A               	movlw	10
  6542     0C0D  00F2               	movwf	___awdiv@divisor
  6543     0C0E  3000               	movlw	0
  6544     0C0F  00F3               	movwf	___awdiv@divisor+1
  6545     0C10  082E               	movf	getPotVal@new_mapped_value,w
  6546     0C11  00A8               	movwf	??_getPotVal
  6547     0C12  01A9               	clrf	??_getPotVal+1
  6548     0C13  0828               	movf	??_getPotVal,w
  6549     0C14  00F4               	movwf	___awdiv@dividend
  6550     0C15  0829               	movf	??_getPotVal+1,w
  6551     0C16  00F5               	movwf	___awdiv@dividend+1
  6552     0C17  120A  158A  221B  120A  158A  	fcall	___awdiv
  6553     0C1C  0872               	movf	?___awdiv,w
  6554     0C1D  3E30               	addlw	48
  6555     0C1E  1283               	bcf	3,5	;RP0=0, select bank0
  6556     0C1F  1303               	bcf	3,6	;RP1=0, select bank0
  6557     0C20  00E4               	movwf	_potVal	;volatile
  6558     0C21                     l3592:
  6559                           
  6560                           ;main.c: 41: 
  6561     0C21  300A               	movlw	10
  6562     0C22  00F2               	movwf	___awmod@divisor
  6563     0C23  3000               	movlw	0
  6564     0C24  00F3               	movwf	___awmod@divisor+1
  6565     0C25  082E               	movf	getPotVal@new_mapped_value,w
  6566     0C26  00A8               	movwf	??_getPotVal
  6567     0C27  01A9               	clrf	??_getPotVal+1
  6568     0C28  0828               	movf	??_getPotVal,w
  6569     0C29  00F4               	movwf	___awmod@dividend
  6570     0C2A  0829               	movf	??_getPotVal+1,w
  6571     0C2B  00F5               	movwf	___awmod@dividend+1
  6572     0C2C  120A  158A  21C4  120A  158A  	fcall	___awmod
  6573     0C31  0872               	movf	?___awmod,w
  6574     0C32  3E30               	addlw	48
  6575     0C33  1283               	bcf	3,5	;RP0=0, select bank0
  6576     0C34  1303               	bcf	3,6	;RP1=0, select bank0
  6577     0C35  00E5               	movwf	_potVal+1	;volatile
  6578     0C36                     l3594:
  6579                           
  6580                           ;main.c: 42:     while(1){
  6581     0C36  01E6               	clrf	_potVal+2	;volatile
  6582     0C37                     l74:
  6583     0C37  0008               	return
  6584     0C38                     __end_of_getPotVal:
  6585                           
  6586                           	psect	text19
  6587     1440                     __ptext19:	
  6588 ;; *************** function _read_adc *****************
  6589 ;; Defined at:
  6590 ;;		line 12 in file "adc.c"
  6591 ;; Parameters:    Size  Location     Type
  6592 ;;		None
  6593 ;; Auto vars:     Size  Location     Type
  6594 ;;  adc_reg_val     2    4[COMMON] unsigned short 
  6595 ;; Return value:  Size  Location     Type
  6596 ;;                  2    2[COMMON] unsigned short 
  6597 ;; Registers used:
  6598 ;;		wreg
  6599 ;; Tracked objects:
  6600 ;;		On entry : 0/0
  6601 ;;		On exit  : 0/0
  6602 ;;		Unchanged: 0/0
  6603 ;; Data sizes:     COMMON   BANK0   BANK1   BANK3   BANK2
  6604 ;;      Params:         2       0       0       0       0
  6605 ;;      Locals:         2       0       0       0       0
  6606 ;;      Temps:          0       0       0       0       0
  6607 ;;      Totals:         4       0       0       0       0
  6608 ;;Total ram usage:        4 bytes
  6609 ;; Hardware stack levels used: 1
  6610 ;; Hardware stack levels required when called: 1
  6611 ;; This function calls:
  6612 ;;		Nothing
  6613 ;; This function is called by:
  6614 ;;		_getPotVal
  6615 ;; This function uses a non-reentrant model
  6616 ;;
  6617                           
  6618     1440                     _read_adc:	
  6619                           ;psect for function _read_adc
  6620                           
  6621     1440                     l2358:	
  6622                           ;incstack = 0
  6623                           ; Regs used in _read_adc: [wreg]
  6624                           
  6625                           
  6626                           ;adc.c: 14:     unsigned short adc_reg_val;;adc.c: 17:     GO = 1;
  6627     1440  1283               	bcf	3,5	;RP0=0, select bank0
  6628     1441  1303               	bcf	3,6	;RP1=0, select bank0
  6629     1442  151F               	bsf	31,2	;volatile
  6630     1443                     l353:	
  6631                           ;adc.c: 20:     while (nDONE);
  6632                           
  6633     1443  191F               	btfsc	31,2	;volatile
  6634     1444  2C46               	goto	u1491
  6635     1445  2C47               	goto	u1490
  6636     1446                     u1491:
  6637     1446  2C43               	goto	l353
  6638     1447                     u1490:
  6639     1447                     l2360:
  6640                           
  6641                           ;adc.c: 22:     adc_reg_val = (unsigned short)(ADRESH << 8) | ADRESL;
  6642     1447  081E               	movf	30,w	;volatile
  6643     1448  00F5               	movwf	read_adc@adc_reg_val+1
  6644     1449  1683               	bsf	3,5	;RP0=1, select bank1
  6645     144A  1303               	bcf	3,6	;RP1=0, select bank1
  6646     144B  081E               	movf	30,w	;volatile
  6647     144C  00F4               	movwf	read_adc@adc_reg_val
  6648                           
  6649                           ;adc.c: 24:     return adc_reg_val;
  6650     144D  0875               	movf	read_adc@adc_reg_val+1,w
  6651     144E  00F3               	movwf	?_read_adc+1
  6652     144F  0874               	movf	read_adc@adc_reg_val,w
  6653     1450  00F2               	movwf	?_read_adc
  6654     1451                     l356:
  6655     1451  0008               	return
  6656     1452                     __end_of_read_adc:
  6657                           
  6658                           	psect	text20
  6659     083F                     __ptext20:	
  6660 ;; *************** function ___lmul *****************
  6661 ;; Defined at:
  6662 ;;		line 15 in file "E:\embeded Sof\pic\sources\c99\common\Umul32.c"
  6663 ;; Parameters:    Size  Location     Type
  6664 ;;  multiplier      4    0[BANK0 ] unsigned long 
  6665 ;;  multiplicand    4    4[BANK0 ] unsigned long 
  6666 ;; Auto vars:     Size  Location     Type
  6667 ;;  product         4    3[COMMON] unsigned long 
  6668 ;; Return value:  Size  Location     Type
  6669 ;;                  4    0[BANK0 ] unsigned long 
  6670 ;; Registers used:
  6671 ;;		wreg, status,2, status,0
  6672 ;; Tracked objects:
  6673 ;;		On entry : 0/0
  6674 ;;		On exit  : 0/0
  6675 ;;		Unchanged: 0/0
  6676 ;; Data sizes:     COMMON   BANK0   BANK1   BANK3   BANK2
  6677 ;;      Params:         0       8       0       0       0
  6678 ;;      Locals:         4       0       0       0       0
  6679 ;;      Temps:          1       0       0       0       0
  6680 ;;      Totals:         5       8       0       0       0
  6681 ;;Total ram usage:       13 bytes
  6682 ;; Hardware stack levels used: 1
  6683 ;; Hardware stack levels required when called: 1
  6684 ;; This function calls:
  6685 ;;		Nothing
  6686 ;; This function is called by:
  6687 ;;		_getPotVal
  6688 ;; This function uses a non-reentrant model
  6689 ;;
  6690                           
  6691     083F                     ___lmul:	
  6692                           ;psect for function ___lmul
  6693                           
  6694     083F                     l2412:	
  6695                           ;incstack = 0
  6696                           ; Regs used in ___lmul: [wreg+status,2+status,0]
  6697                           
  6698     083F  3000               	movlw	0
  6699     0840  00F6               	movwf	___lmul@product+3
  6700     0841  3000               	movlw	0
  6701     0842  00F5               	movwf	___lmul@product+2
  6702     0843  3000               	movlw	0
  6703     0844  00F4               	movwf	___lmul@product+1
  6704     0845  3000               	movlw	0
  6705     0846  00F3               	movwf	___lmul@product
  6706     0847                     l2414:
  6707     0847  1283               	bcf	3,5	;RP0=0, select bank0
  6708     0848  1303               	bcf	3,6	;RP1=0, select bank0
  6709     0849  1C20               	btfss	___lmul@multiplier,0
  6710     084A  284C               	goto	u1551
  6711     084B  284D               	goto	u1550
  6712     084C                     u1551:
  6713     084C  2864               	goto	l2418
  6714     084D                     u1550:
  6715     084D                     l2416:
  6716     084D  0824               	movf	___lmul@multiplicand,w
  6717     084E  07F3               	addwf	___lmul@product,f
  6718     084F  0825               	movf	___lmul@multiplicand+1,w
  6719     0850  1103               	clrz
  6720     0851  1803               	skipnc
  6721     0852  3E01               	addlw	1
  6722     0853  1903               	skipnz
  6723     0854  2856               	goto	u1561
  6724     0855  07F4               	addwf	___lmul@product+1,f
  6725     0856                     u1561:
  6726     0856  0826               	movf	___lmul@multiplicand+2,w
  6727     0857  1103               	clrz
  6728     0858  1803               	skipnc
  6729     0859  3E01               	addlw	1
  6730     085A  1903               	skipnz
  6731     085B  285D               	goto	u1562
  6732     085C  07F5               	addwf	___lmul@product+2,f
  6733     085D                     u1562:
  6734     085D  0827               	movf	___lmul@multiplicand+3,w
  6735     085E  1103               	clrz
  6736     085F  1803               	skipnc
  6737     0860  3E01               	addlw	1
  6738     0861  1903               	skipnz
  6739     0862  2864               	goto	u1563
  6740     0863  07F6               	addwf	___lmul@product+3,f
  6741     0864                     u1563:
  6742     0864                     l2418:
  6743     0864  3001               	movlw	1
  6744     0865  00F2               	movwf	??___lmul
  6745     0866                     u1575:
  6746     0866  1003               	clrc
  6747     0867  0DA4               	rlf	___lmul@multiplicand,f
  6748     0868  0DA5               	rlf	___lmul@multiplicand+1,f
  6749     0869  0DA6               	rlf	___lmul@multiplicand+2,f
  6750     086A  0DA7               	rlf	___lmul@multiplicand+3,f
  6751     086B  0BF2               	decfsz	??___lmul,f
  6752     086C  2866               	goto	u1575
  6753     086D                     l2420:
  6754     086D  3001               	movlw	1
  6755     086E                     u1585:
  6756     086E  1003               	clrc
  6757     086F  0CA3               	rrf	___lmul@multiplier+3,f
  6758     0870  0CA2               	rrf	___lmul@multiplier+2,f
  6759     0871  0CA1               	rrf	___lmul@multiplier+1,f
  6760     0872  0CA0               	rrf	___lmul@multiplier,f
  6761     0873  3EFF               	addlw	-1
  6762     0874  1D03               	skipz
  6763     0875  286E               	goto	u1585
  6764     0876  0823               	movf	___lmul@multiplier+3,w
  6765     0877  0422               	iorwf	___lmul@multiplier+2,w
  6766     0878  0421               	iorwf	___lmul@multiplier+1,w
  6767     0879  0420               	iorwf	___lmul@multiplier,w
  6768     087A  1D03               	skipz
  6769     087B  287D               	goto	u1591
  6770     087C  287E               	goto	u1590
  6771     087D                     u1591:
  6772     087D  2847               	goto	l2414
  6773     087E                     u1590:
  6774     087E                     l2422:
  6775     087E  0876               	movf	___lmul@product+3,w
  6776     087F  00A3               	movwf	?___lmul+3
  6777     0880  0875               	movf	___lmul@product+2,w
  6778     0881  00A2               	movwf	?___lmul+2
  6779     0882  0874               	movf	___lmul@product+1,w
  6780     0883  00A1               	movwf	?___lmul+1
  6781     0884  0873               	movf	___lmul@product,w
  6782     0885  00A0               	movwf	?___lmul
  6783     0886                     l681:
  6784     0886  0008               	return
  6785     0887                     __end_of___lmul:
  6786                           
  6787                           	psect	text21
  6788     09C4                     __ptext21:	
  6789 ;; *************** function ___awmod *****************
  6790 ;; Defined at:
  6791 ;;		line 5 in file "E:\embeded Sof\pic\sources\c99\common\awmod.c"
  6792 ;; Parameters:    Size  Location     Type
  6793 ;;  divisor         2    2[COMMON] int 
  6794 ;;  dividend        2    4[COMMON] int 
  6795 ;; Auto vars:     Size  Location     Type
  6796 ;;  sign            1    7[COMMON] unsigned char 
  6797 ;;  counter         1    6[COMMON] unsigned char 
  6798 ;; Return value:  Size  Location     Type
  6799 ;;                  2    2[COMMON] int 
  6800 ;; Registers used:
  6801 ;;		wreg, status,2, status,0
  6802 ;; Tracked objects:
  6803 ;;		On entry : 0/0
  6804 ;;		On exit  : 0/0
  6805 ;;		Unchanged: 0/0
  6806 ;; Data sizes:     COMMON   BANK0   BANK1   BANK3   BANK2
  6807 ;;      Params:         4       0       0       0       0
  6808 ;;      Locals:         2       0       0       0       0
  6809 ;;      Temps:          0       0       0       0       0
  6810 ;;      Totals:         6       0       0       0       0
  6811 ;;Total ram usage:        6 bytes
  6812 ;; Hardware stack levels used: 1
  6813 ;; Hardware stack levels required when called: 1
  6814 ;; This function calls:
  6815 ;;		Nothing
  6816 ;; This function is called by:
  6817 ;;		_getPotVal
  6818 ;;		_dec_to_bcd
  6819 ;;		_set_time
  6820 ;;		_login
  6821 ;; This function uses a non-reentrant model
  6822 ;;
  6823                           
  6824     09C4                     ___awmod:	
  6825                           ;psect for function ___awmod
  6826                           
  6827     09C4                     l3538:	
  6828                           ;incstack = 0
  6829                           ; Regs used in ___awmod: [wreg+status,2+status,0]
  6830                           
  6831     09C4  01F7               	clrf	___awmod@sign
  6832     09C5                     l3540:
  6833     09C5  1FF5               	btfss	___awmod@dividend+1,7
  6834     09C6  29C8               	goto	u3091
  6835     09C7  29C9               	goto	u3090
  6836     09C8                     u3091:
  6837     09C8  29D0               	goto	l3546
  6838     09C9                     u3090:
  6839     09C9                     l3542:
  6840     09C9  09F4               	comf	___awmod@dividend,f
  6841     09CA  09F5               	comf	___awmod@dividend+1,f
  6842     09CB  0AF4               	incf	___awmod@dividend,f
  6843     09CC  1903               	skipnz
  6844     09CD  0AF5               	incf	___awmod@dividend+1,f
  6845     09CE                     l3544:
  6846     09CE  3001               	movlw	1
  6847     09CF  00F7               	movwf	___awmod@sign
  6848     09D0                     l3546:
  6849     09D0  1FF3               	btfss	___awmod@divisor+1,7
  6850     09D1  29D3               	goto	u3101
  6851     09D2  29D4               	goto	u3100
  6852     09D3                     u3101:
  6853     09D3  29D9               	goto	l3550
  6854     09D4                     u3100:
  6855     09D4                     l3548:
  6856     09D4  09F2               	comf	___awmod@divisor,f
  6857     09D5  09F3               	comf	___awmod@divisor+1,f
  6858     09D6  0AF2               	incf	___awmod@divisor,f
  6859     09D7  1903               	skipnz
  6860     09D8  0AF3               	incf	___awmod@divisor+1,f
  6861     09D9                     l3550:
  6862     09D9  0872               	movf	___awmod@divisor,w
  6863     09DA  0473               	iorwf	___awmod@divisor+1,w
  6864     09DB  1903               	btfsc	3,2
  6865     09DC  29DE               	goto	u3111
  6866     09DD  29DF               	goto	u3110
  6867     09DE                     u3111:
  6868     09DE  2A0C               	goto	l3568
  6869     09DF                     u3110:
  6870     09DF                     l3552:
  6871     09DF  3001               	movlw	1
  6872     09E0  00F6               	movwf	___awmod@counter
  6873     09E1  29EB               	goto	l3558
  6874     09E2                     l3554:
  6875     09E2  3001               	movlw	1
  6876     09E3                     u3125:
  6877     09E3  1003               	clrc
  6878     09E4  0DF2               	rlf	___awmod@divisor,f
  6879     09E5  0DF3               	rlf	___awmod@divisor+1,f
  6880     09E6  3EFF               	addlw	-1
  6881     09E7  1D03               	skipz
  6882     09E8  29E3               	goto	u3125
  6883     09E9                     l3556:
  6884     09E9  3001               	movlw	1
  6885     09EA  07F6               	addwf	___awmod@counter,f
  6886     09EB                     l3558:
  6887     09EB  1FF3               	btfss	___awmod@divisor+1,7
  6888     09EC  29EE               	goto	u3131
  6889     09ED  29EF               	goto	u3130
  6890     09EE                     u3131:
  6891     09EE  29E2               	goto	l3554
  6892     09EF                     u3130:
  6893     09EF                     l3560:
  6894     09EF  0873               	movf	___awmod@divisor+1,w
  6895     09F0  0275               	subwf	___awmod@dividend+1,w
  6896     09F1  1D03               	skipz
  6897     09F2  29F5               	goto	u3145
  6898     09F3  0872               	movf	___awmod@divisor,w
  6899     09F4  0274               	subwf	___awmod@dividend,w
  6900     09F5                     u3145:
  6901     09F5  1C03               	skipc
  6902     09F6  29F8               	goto	u3141
  6903     09F7  29F9               	goto	u3140
  6904     09F8                     u3141:
  6905     09F8  29FF               	goto	l3564
  6906     09F9                     u3140:
  6907     09F9                     l3562:
  6908     09F9  0872               	movf	___awmod@divisor,w
  6909     09FA  02F4               	subwf	___awmod@dividend,f
  6910     09FB  0873               	movf	___awmod@divisor+1,w
  6911     09FC  1C03               	skipc
  6912     09FD  03F5               	decf	___awmod@dividend+1,f
  6913     09FE  02F5               	subwf	___awmod@dividend+1,f
  6914     09FF                     l3564:
  6915     09FF  3001               	movlw	1
  6916     0A00                     u3155:
  6917     0A00  1003               	clrc
  6918     0A01  0CF3               	rrf	___awmod@divisor+1,f
  6919     0A02  0CF2               	rrf	___awmod@divisor,f
  6920     0A03  3EFF               	addlw	-1
  6921     0A04  1D03               	skipz
  6922     0A05  2A00               	goto	u3155
  6923     0A06                     l3566:
  6924     0A06  3001               	movlw	1
  6925     0A07  02F6               	subwf	___awmod@counter,f
  6926     0A08  1D03               	btfss	3,2
  6927     0A09  2A0B               	goto	u3161
  6928     0A0A  2A0C               	goto	u3160
  6929     0A0B                     u3161:
  6930     0A0B  29EF               	goto	l3560
  6931     0A0C                     u3160:
  6932     0A0C                     l3568:
  6933     0A0C  0877               	movf	___awmod@sign,w
  6934     0A0D  1903               	btfsc	3,2
  6935     0A0E  2A10               	goto	u3171
  6936     0A0F  2A11               	goto	u3170
  6937     0A10                     u3171:
  6938     0A10  2A16               	goto	l3572
  6939     0A11                     u3170:
  6940     0A11                     l3570:
  6941     0A11  09F4               	comf	___awmod@dividend,f
  6942     0A12  09F5               	comf	___awmod@dividend+1,f
  6943     0A13  0AF4               	incf	___awmod@dividend,f
  6944     0A14  1903               	skipnz
  6945     0A15  0AF5               	incf	___awmod@dividend+1,f
  6946     0A16                     l3572:
  6947     0A16  0875               	movf	___awmod@dividend+1,w
  6948     0A17  00F3               	movwf	?___awmod+1
  6949     0A18  0874               	movf	___awmod@dividend,w
  6950     0A19  00F2               	movwf	?___awmod
  6951     0A1A                     l833:
  6952     0A1A  0008               	return
  6953     0A1B                     __end_of___awmod:
  6954                           
  6955                           	psect	text22
  6956     0A1B                     __ptext22:	
  6957 ;; *************** function ___awdiv *****************
  6958 ;; Defined at:
  6959 ;;		line 5 in file "E:\embeded Sof\pic\sources\c99\common\awdiv.c"
  6960 ;; Parameters:    Size  Location     Type
  6961 ;;  divisor         2    2[COMMON] int 
  6962 ;;  dividend        2    4[COMMON] int 
  6963 ;; Auto vars:     Size  Location     Type
  6964 ;;  quotient        2    2[BANK0 ] int 
  6965 ;;  sign            1    1[BANK0 ] unsigned char 
  6966 ;;  counter         1    0[BANK0 ] unsigned char 
  6967 ;; Return value:  Size  Location     Type
  6968 ;;                  2    2[COMMON] int 
  6969 ;; Registers used:
  6970 ;;		wreg, status,2, status,0
  6971 ;; Tracked objects:
  6972 ;;		On entry : 0/0
  6973 ;;		On exit  : 0/0
  6974 ;;		Unchanged: 0/0
  6975 ;; Data sizes:     COMMON   BANK0   BANK1   BANK3   BANK2
  6976 ;;      Params:         4       0       0       0       0
  6977 ;;      Locals:         0       4       0       0       0
  6978 ;;      Temps:          0       0       0       0       0
  6979 ;;      Totals:         4       4       0       0       0
  6980 ;;Total ram usage:        8 bytes
  6981 ;; Hardware stack levels used: 1
  6982 ;; Hardware stack levels required when called: 1
  6983 ;; This function calls:
  6984 ;;		Nothing
  6985 ;; This function is called by:
  6986 ;;		_getPotVal
  6987 ;;		_dec_to_bcd
  6988 ;;		_set_time
  6989 ;;		_login
  6990 ;; This function uses a non-reentrant model
  6991 ;;
  6992                           
  6993     0A1B                     ___awdiv:	
  6994                           ;psect for function ___awdiv
  6995                           
  6996     0A1B                     l3494:	
  6997                           ;incstack = 0
  6998                           ; Regs used in ___awdiv: [wreg+status,2+status,0]
  6999                           
  7000     0A1B  1283               	bcf	3,5	;RP0=0, select bank0
  7001     0A1C  1303               	bcf	3,6	;RP1=0, select bank0
  7002     0A1D  01A1               	clrf	___awdiv@sign
  7003     0A1E                     l3496:
  7004     0A1E  1FF3               	btfss	___awdiv@divisor+1,7
  7005     0A1F  2A21               	goto	u2991
  7006     0A20  2A22               	goto	u2990
  7007     0A21                     u2991:
  7008     0A21  2A29               	goto	l3502
  7009     0A22                     u2990:
  7010     0A22                     l3498:
  7011     0A22  09F2               	comf	___awdiv@divisor,f
  7012     0A23  09F3               	comf	___awdiv@divisor+1,f
  7013     0A24  0AF2               	incf	___awdiv@divisor,f
  7014     0A25  1903               	skipnz
  7015     0A26  0AF3               	incf	___awdiv@divisor+1,f
  7016     0A27                     l3500:
  7017     0A27  3001               	movlw	1
  7018     0A28  00A1               	movwf	___awdiv@sign
  7019     0A29                     l3502:
  7020     0A29  1FF5               	btfss	___awdiv@dividend+1,7
  7021     0A2A  2A2C               	goto	u3001
  7022     0A2B  2A2D               	goto	u3000
  7023     0A2C                     u3001:
  7024     0A2C  2A34               	goto	l3508
  7025     0A2D                     u3000:
  7026     0A2D                     l3504:
  7027     0A2D  09F4               	comf	___awdiv@dividend,f
  7028     0A2E  09F5               	comf	___awdiv@dividend+1,f
  7029     0A2F  0AF4               	incf	___awdiv@dividend,f
  7030     0A30  1903               	skipnz
  7031     0A31  0AF5               	incf	___awdiv@dividend+1,f
  7032     0A32                     l3506:
  7033     0A32  3001               	movlw	1
  7034     0A33  06A1               	xorwf	___awdiv@sign,f
  7035     0A34                     l3508:
  7036     0A34  01A2               	clrf	___awdiv@quotient
  7037     0A35  01A3               	clrf	___awdiv@quotient+1
  7038     0A36                     l3510:
  7039     0A36  0872               	movf	___awdiv@divisor,w
  7040     0A37  0473               	iorwf	___awdiv@divisor+1,w
  7041     0A38  1903               	btfsc	3,2
  7042     0A39  2A3B               	goto	u3011
  7043     0A3A  2A3C               	goto	u3010
  7044     0A3B                     u3011:
  7045     0A3B  2A71               	goto	l3530
  7046     0A3C                     u3010:
  7047     0A3C                     l3512:
  7048     0A3C  3001               	movlw	1
  7049     0A3D  00A0               	movwf	___awdiv@counter
  7050     0A3E  2A48               	goto	l3518
  7051     0A3F                     l3514:
  7052     0A3F  3001               	movlw	1
  7053     0A40                     u3025:
  7054     0A40  1003               	clrc
  7055     0A41  0DF2               	rlf	___awdiv@divisor,f
  7056     0A42  0DF3               	rlf	___awdiv@divisor+1,f
  7057     0A43  3EFF               	addlw	-1
  7058     0A44  1D03               	skipz
  7059     0A45  2A40               	goto	u3025
  7060     0A46                     l3516:
  7061     0A46  3001               	movlw	1
  7062     0A47  07A0               	addwf	___awdiv@counter,f
  7063     0A48                     l3518:
  7064     0A48  1FF3               	btfss	___awdiv@divisor+1,7
  7065     0A49  2A4B               	goto	u3031
  7066     0A4A  2A4C               	goto	u3030
  7067     0A4B                     u3031:
  7068     0A4B  2A3F               	goto	l3514
  7069     0A4C                     u3030:
  7070     0A4C                     l3520:
  7071     0A4C  3001               	movlw	1
  7072     0A4D                     u3045:
  7073     0A4D  1003               	clrc
  7074     0A4E  0DA2               	rlf	___awdiv@quotient,f
  7075     0A4F  0DA3               	rlf	___awdiv@quotient+1,f
  7076     0A50  3EFF               	addlw	-1
  7077     0A51  1D03               	skipz
  7078     0A52  2A4D               	goto	u3045
  7079     0A53  0873               	movf	___awdiv@divisor+1,w
  7080     0A54  0275               	subwf	___awdiv@dividend+1,w
  7081     0A55  1D03               	skipz
  7082     0A56  2A59               	goto	u3055
  7083     0A57  0872               	movf	___awdiv@divisor,w
  7084     0A58  0274               	subwf	___awdiv@dividend,w
  7085     0A59                     u3055:
  7086     0A59  1C03               	skipc
  7087     0A5A  2A5C               	goto	u3051
  7088     0A5B  2A5D               	goto	u3050
  7089     0A5C                     u3051:
  7090     0A5C  2A64               	goto	l3526
  7091     0A5D                     u3050:
  7092     0A5D                     l3522:
  7093     0A5D  0872               	movf	___awdiv@divisor,w
  7094     0A5E  02F4               	subwf	___awdiv@dividend,f
  7095     0A5F  0873               	movf	___awdiv@divisor+1,w
  7096     0A60  1C03               	skipc
  7097     0A61  03F5               	decf	___awdiv@dividend+1,f
  7098     0A62  02F5               	subwf	___awdiv@dividend+1,f
  7099     0A63                     l3524:
  7100     0A63  1422               	bsf	___awdiv@quotient,0
  7101     0A64                     l3526:
  7102     0A64  3001               	movlw	1
  7103     0A65                     u3065:
  7104     0A65  1003               	clrc
  7105     0A66  0CF3               	rrf	___awdiv@divisor+1,f
  7106     0A67  0CF2               	rrf	___awdiv@divisor,f
  7107     0A68  3EFF               	addlw	-1
  7108     0A69  1D03               	skipz
  7109     0A6A  2A65               	goto	u3065
  7110     0A6B                     l3528:
  7111     0A6B  3001               	movlw	1
  7112     0A6C  02A0               	subwf	___awdiv@counter,f
  7113     0A6D  1D03               	btfss	3,2
  7114     0A6E  2A70               	goto	u3071
  7115     0A6F  2A71               	goto	u3070
  7116     0A70                     u3071:
  7117     0A70  2A4C               	goto	l3520
  7118     0A71                     u3070:
  7119     0A71                     l3530:
  7120     0A71  0821               	movf	___awdiv@sign,w
  7121     0A72  1903               	btfsc	3,2
  7122     0A73  2A75               	goto	u3081
  7123     0A74  2A76               	goto	u3080
  7124     0A75                     u3081:
  7125     0A75  2A7B               	goto	l3534
  7126     0A76                     u3080:
  7127     0A76                     l3532:
  7128     0A76  09A2               	comf	___awdiv@quotient,f
  7129     0A77  09A3               	comf	___awdiv@quotient+1,f
  7130     0A78  0AA2               	incf	___awdiv@quotient,f
  7131     0A79  1903               	skipnz
  7132     0A7A  0AA3               	incf	___awdiv@quotient+1,f
  7133     0A7B                     l3534:
  7134     0A7B  0823               	movf	___awdiv@quotient+1,w
  7135     0A7C  00F3               	movwf	?___awdiv+1
  7136     0A7D  0822               	movf	___awdiv@quotient,w
  7137     0A7E  00F2               	movwf	?___awdiv
  7138     0A7F                     l820:
  7139     0A7F  0008               	return
  7140     0A80                     __end_of___awdiv:
  7141                           
  7142                           	psect	text23
  7143     091F                     __ptext23:	
  7144 ;; *************** function _display_time *****************
  7145 ;; Defined at:
  7146 ;;		line 37 in file "bb.c"
  7147 ;; Parameters:    Size  Location     Type
  7148 ;;		None
  7149 ;; Auto vars:     Size  Location     Type
  7150 ;;		None
  7151 ;; Return value:  Size  Location     Type
  7152 ;;                  1    wreg      void 
  7153 ;; Registers used:
  7154 ;;		wreg, status,2, status,0, pclath, cstack
  7155 ;; Tracked objects:
  7156 ;;		On entry : 0/0
  7157 ;;		On exit  : 0/0
  7158 ;;		Unchanged: 0/0
  7159 ;; Data sizes:     COMMON   BANK0   BANK1   BANK3   BANK2
  7160 ;;      Params:         0       0       0       0       0
  7161 ;;      Locals:         0       0       0       0       0
  7162 ;;      Temps:          0       0       0       0       0
  7163 ;;      Totals:         0       0       0       0       0
  7164 ;;Total ram usage:        0 bytes
  7165 ;; Hardware stack levels used: 1
  7166 ;; Hardware stack levels required when called: 3
  7167 ;; This function calls:
  7168 ;;		_clcd_putch
  7169 ;;		_get_time
  7170 ;; This function is called by:
  7171 ;;		_disp_dashboard
  7172 ;; This function uses a non-reentrant model
  7173 ;;
  7174                           
  7175     091F                     _display_time:	
  7176                           ;psect for function _display_time
  7177                           
  7178     091F                     l3608:	
  7179                           ;incstack = 0
  7180                           ; Regs used in _display_time: [wreg+status,2+status,0+pclath+cstack]
  7181                           
  7182                           
  7183                           ;bb.c: 39:     get_time();
  7184     091F  120A  158A  20D2  120A  158A  	fcall	_get_time
  7185                           
  7186                           ;bb.c: 40:     clcd_putch(time[0],(0xC0 + 0));
  7187     0924  30C0               	movlw	192
  7188     0925  00F8               	movwf	clcd_putch@addr
  7189     0926  1283               	bcf	3,5	;RP0=0, select bank0
  7190     0927  1303               	bcf	3,6	;RP1=0, select bank0
  7191     0928  085D               	movf	_time,w
  7192     0929  160A  118A  248C  120A  158A  	fcall	_clcd_putch
  7193                           
  7194                           ;bb.c: 41:     clcd_putch(time[1],(0xC0 + 1));
  7195     092E  30C1               	movlw	193
  7196     092F  00F8               	movwf	clcd_putch@addr
  7197     0930  1283               	bcf	3,5	;RP0=0, select bank0
  7198     0931  1303               	bcf	3,6	;RP1=0, select bank0
  7199     0932  085E               	movf	_time+1,w
  7200     0933  160A  118A  248C  120A  158A  	fcall	_clcd_putch
  7201                           
  7202                           ;bb.c: 42:     clcd_putch(':',(0xC0 + 2));
  7203     0938  30C2               	movlw	194
  7204     0939  00F8               	movwf	clcd_putch@addr
  7205     093A  303A               	movlw	58
  7206     093B  160A  118A  248C  120A  158A  	fcall	_clcd_putch
  7207                           
  7208                           ;bb.c: 43:     clcd_putch(time[2],(0xC0 + 3));
  7209     0940  30C3               	movlw	195
  7210     0941  00F8               	movwf	clcd_putch@addr
  7211     0942  1283               	bcf	3,5	;RP0=0, select bank0
  7212     0943  1303               	bcf	3,6	;RP1=0, select bank0
  7213     0944  085F               	movf	_time+2,w
  7214     0945  160A  118A  248C  120A  158A  	fcall	_clcd_putch
  7215                           
  7216                           ;bb.c: 44:     clcd_putch(time[3],(0xC0 + 4));
  7217     094A  30C4               	movlw	196
  7218     094B  00F8               	movwf	clcd_putch@addr
  7219     094C  1283               	bcf	3,5	;RP0=0, select bank0
  7220     094D  1303               	bcf	3,6	;RP1=0, select bank0
  7221     094E  0860               	movf	_time+3,w
  7222     094F  160A  118A  248C  120A  158A  	fcall	_clcd_putch
  7223                           
  7224                           ;bb.c: 45:     clcd_putch(':',(0xC0 + 5));
  7225     0954  30C5               	movlw	197
  7226     0955  00F8               	movwf	clcd_putch@addr
  7227     0956  303A               	movlw	58
  7228     0957  160A  118A  248C  120A  158A  	fcall	_clcd_putch
  7229                           
  7230                           ;bb.c: 46:     clcd_putch(time[4],(0xC0 + 6));
  7231     095C  30C6               	movlw	198
  7232     095D  00F8               	movwf	clcd_putch@addr
  7233     095E  1283               	bcf	3,5	;RP0=0, select bank0
  7234     095F  1303               	bcf	3,6	;RP1=0, select bank0
  7235     0960  0861               	movf	_time+4,w
  7236     0961  160A  118A  248C  120A  158A  	fcall	_clcd_putch
  7237                           
  7238                           ;bb.c: 47:     clcd_putch(time[5],(0xC0 + 7));
  7239     0966  30C7               	movlw	199
  7240     0967  00F8               	movwf	clcd_putch@addr
  7241     0968  1283               	bcf	3,5	;RP0=0, select bank0
  7242     0969  1303               	bcf	3,6	;RP1=0, select bank0
  7243     096A  0862               	movf	_time+5,w
  7244     096B  160A  118A  248C  120A  158A  	fcall	_clcd_putch
  7245     0970                     l191:
  7246     0970  0008               	return
  7247     0971                     __end_of_display_time:
  7248                           
  7249                           	psect	text24
  7250     08D2                     __ptext24:	
  7251 ;; *************** function _get_time *****************
  7252 ;; Defined at:
  7253 ;;		line 22 in file "bb.c"
  7254 ;; Parameters:    Size  Location     Type
  7255 ;;		None
  7256 ;; Auto vars:     Size  Location     Type
  7257 ;;		None
  7258 ;; Return value:  Size  Location     Type
  7259 ;;                  1    wreg      void 
  7260 ;; Registers used:
  7261 ;;		wreg, status,2, status,0, pclath, cstack
  7262 ;; Tracked objects:
  7263 ;;		On entry : 0/0
  7264 ;;		On exit  : 0/0
  7265 ;;		Unchanged: 0/0
  7266 ;; Data sizes:     COMMON   BANK0   BANK1   BANK3   BANK2
  7267 ;;      Params:         0       0       0       0       0
  7268 ;;      Locals:         0       0       0       0       0
  7269 ;;      Temps:          0       1       0       0       0
  7270 ;;      Totals:         0       1       0       0       0
  7271 ;;Total ram usage:        1 bytes
  7272 ;; Hardware stack levels used: 1
  7273 ;; Hardware stack levels required when called: 1
  7274 ;; This function calls:
  7275 ;;		_read_ds1307
  7276 ;; This function is called by:
  7277 ;;		_display_time
  7278 ;;		_log_car_event
  7279 ;; This function uses a non-reentrant model
  7280 ;;
  7281                           
  7282     08D2                     _get_time:	
  7283                           ;psect for function _get_time
  7284                           
  7285     08D2                     l2364:	
  7286                           ;incstack = 0
  7287                           ; Regs used in _get_time: [wreg+status,2+status,0+pclath+cstack]
  7288                           
  7289                           
  7290                           ;bb.c: 25:     clock_reg[0]=read_ds1307(0x02);
  7291     08D2  3002               	movlw	2
  7292     08D3  160A  118A  26A8  120A  158A  	fcall	_read_ds1307
  7293     08D8  1283               	bcf	3,5	;RP0=0, select bank0
  7294     08D9  1303               	bcf	3,6	;RP1=0, select bank0
  7295     08DA  00C9               	movwf	_clock_reg
  7296                           
  7297                           ;bb.c: 26:     clock_reg[1]=read_ds1307(0x01);
  7298     08DB  3001               	movlw	1
  7299     08DC  160A  118A  26A8  120A  158A  	fcall	_read_ds1307
  7300     08E1  1283               	bcf	3,5	;RP0=0, select bank0
  7301     08E2  1303               	bcf	3,6	;RP1=0, select bank0
  7302     08E3  00CA               	movwf	_clock_reg+1
  7303                           
  7304                           ;bb.c: 27:     clock_reg[2]=read_ds1307(0x00);
  7305     08E4  3000               	movlw	0
  7306     08E5  160A  118A  26A8  120A  158A  	fcall	_read_ds1307
  7307     08EA  1283               	bcf	3,5	;RP0=0, select bank0
  7308     08EB  1303               	bcf	3,6	;RP1=0, select bank0
  7309     08EC  00CB               	movwf	_clock_reg+2
  7310     08ED                     l2366:
  7311                           
  7312                           ;bb.c: 28:     time[0] = ((clock_reg[0] >> 4) & 0x03) + '0';
  7313     08ED  0849               	movf	_clock_reg,w
  7314     08EE  00AE               	movwf	??_get_time
  7315     08EF  3004               	movlw	4
  7316     08F0                     u1505:
  7317     08F0  1003               	clrc
  7318     08F1  0CAE               	rrf	??_get_time,f
  7319     08F2  3EFF               	addlw	-1
  7320     08F3  1D03               	skipz
  7321     08F4  28F0               	goto	u1505
  7322     08F5  082E               	movf	??_get_time,w
  7323     08F6  3903               	andlw	3
  7324     08F7  3E30               	addlw	48
  7325     08F8  00DD               	movwf	_time
  7326     08F9                     l2368:
  7327                           
  7328                           ;bb.c: 29:     time[1] = (clock_reg[0] & 0x0F) + '0';
  7329     08F9  0849               	movf	_clock_reg,w
  7330     08FA  390F               	andlw	15
  7331     08FB  3E30               	addlw	48
  7332     08FC  00DE               	movwf	_time+1
  7333     08FD                     l2370:
  7334                           
  7335                           ;bb.c: 30:     time[2] = ((clock_reg[1] >> 4) & 0x07) + '0';
  7336     08FD  084A               	movf	_clock_reg+1,w
  7337     08FE  00AE               	movwf	??_get_time
  7338     08FF  3004               	movlw	4
  7339     0900                     u1515:
  7340     0900  1003               	clrc
  7341     0901  0CAE               	rrf	??_get_time,f
  7342     0902  3EFF               	addlw	-1
  7343     0903  1D03               	skipz
  7344     0904  2900               	goto	u1515
  7345     0905  082E               	movf	??_get_time,w
  7346     0906  3907               	andlw	7
  7347     0907  3E30               	addlw	48
  7348     0908  00DF               	movwf	_time+2
  7349     0909                     l2372:
  7350                           
  7351                           ;bb.c: 31:     time[3] = (clock_reg[1] & 0x0F) + '0';
  7352     0909  084A               	movf	_clock_reg+1,w
  7353     090A  390F               	andlw	15
  7354     090B  3E30               	addlw	48
  7355     090C  00E0               	movwf	_time+3
  7356     090D                     l2374:
  7357                           
  7358                           ;bb.c: 32:     time[4] = ((clock_reg[2] >> 4) & 0x07) + '0';
  7359     090D  084B               	movf	_clock_reg+2,w
  7360     090E  00AE               	movwf	??_get_time
  7361     090F  3004               	movlw	4
  7362     0910                     u1525:
  7363     0910  1003               	clrc
  7364     0911  0CAE               	rrf	??_get_time,f
  7365     0912  3EFF               	addlw	-1
  7366     0913  1D03               	skipz
  7367     0914  2910               	goto	u1525
  7368     0915  082E               	movf	??_get_time,w
  7369     0916  3907               	andlw	7
  7370     0917  3E30               	addlw	48
  7371     0918  00E1               	movwf	_time+4
  7372     0919                     l2376:
  7373                           
  7374                           ;bb.c: 33:     time[5] = (clock_reg[2] & 0x0F) + '0';
  7375     0919  084B               	movf	_clock_reg+2,w
  7376     091A  390F               	andlw	15
  7377     091B  3E30               	addlw	48
  7378     091C  00E2               	movwf	_time+5
  7379     091D                     l2378:
  7380                           
  7381                           ;bb.c: 34:     time[6] ='\0';
  7382     091D  01E3               	clrf	_time+6
  7383     091E                     l188:
  7384     091E  0008               	return
  7385     091F                     __end_of_get_time:
  7386                           
  7387                           	psect	text25
  7388     1779                     __ptext25:	
  7389 ;; *************** function _config *****************
  7390 ;; Defined at:
  7391 ;;		line 19 in file "main.c"
  7392 ;; Parameters:    Size  Location     Type
  7393 ;;		None
  7394 ;; Auto vars:     Size  Location     Type
  7395 ;;		None
  7396 ;; Return value:  Size  Location     Type
  7397 ;;                  1    wreg      void 
  7398 ;; Registers used:
  7399 ;;		wreg, fsr0l, fsr0h, status,2, status,0, pclath, btemp1, cstack
  7400 ;; Tracked objects:
  7401 ;;		On entry : 0/0
  7402 ;;		On exit  : 0/0
  7403 ;;		Unchanged: 0/0
  7404 ;; Data sizes:     COMMON   BANK0   BANK1   BANK3   BANK2
  7405 ;;      Params:         0       0       0       0       0
  7406 ;;      Locals:         0       0       0       0       0
  7407 ;;      Temps:          0       0       0       0       0
  7408 ;;      Totals:         0       0       0       0       0
  7409 ;;Total ram usage:        0 bytes
  7410 ;; Hardware stack levels used: 1
  7411 ;; Hardware stack levels required when called: 6
  7412 ;; This function calls:
  7413 ;;		_init_adc
  7414 ;;		_init_clcd
  7415 ;;		_init_digital_keypad
  7416 ;;		_init_ds1307
  7417 ;;		_init_i2c
  7418 ;;		_init_timer0
  7419 ;;		_init_uart
  7420 ;;		_puts
  7421 ;; This function is called by:
  7422 ;;		_main
  7423 ;; This function uses a non-reentrant model
  7424 ;;
  7425                           
  7426     1779                     _config:	
  7427                           ;psect for function _config
  7428                           
  7429     1779                     l3630:	
  7430                           ;incstack = 0
  7431                           ; Regs used in _config: [wreg-fsr0h+status,2+status,0+pclath+btemp1+cstack]
  7432                           
  7433                           
  7434                           ;main.c: 20: 
  7435     1779  160A  118A  23E9  160A  118A  	fcall	_init_clcd
  7436     177E                     l3632:
  7437                           
  7438                           ;main.c: 21:  void getPotVal() {
  7439     177E  120A  158A  2000  160A  118A  	fcall	_init_adc
  7440     1783                     l3634:
  7441                           
  7442                           ;main.c: 22:     pot_value = read_adc();
  7443     1783  3000               	movlw	0
  7444     1784  1283               	bcf	3,5	;RP0=0, select bank0
  7445     1785  1303               	bcf	3,6	;RP1=0, select bank0
  7446     1786  00AB               	movwf	init_i2c@baud+3
  7447     1787  3001               	movlw	1
  7448     1788  00AA               	movwf	init_i2c@baud+2
  7449     1789  3086               	movlw	134
  7450     178A  00A9               	movwf	init_i2c@baud+1
  7451     178B  30A0               	movlw	160
  7452     178C  00A8               	movwf	init_i2c@baud
  7453     178D  160A  118A  270E  160A  118A  	fcall	_init_i2c
  7454     1792                     l3636:
  7455                           
  7456                           ;main.c: 23:     unsigned long temp;
  7457     1792  160A  118A  2478  160A  118A  	fcall	_init_ds1307
  7458     1797                     l3638:
  7459                           
  7460                           ;main.c: 24: 
  7461     1797  160A  118A  23BF  160A  118A  	fcall	_init_digital_keypad
  7462                           
  7463                           ;main.c: 25:     temp = (unsigned long)pot_value * 99;
  7464     179C  160A  118A  23DF  160A  118A  	fcall	_init_timer0
  7465     17A1                     l3640:
  7466                           
  7467                           ;main.c: 26:     unsigned char new_mapped_value = temp / 1023;
  7468     17A1  3000               	movlw	0
  7469     17A2  1283               	bcf	3,5	;RP0=0, select bank0
  7470     17A3  1303               	bcf	3,6	;RP1=0, select bank0
  7471     17A4  00AB               	movwf	init_uart@baud+3
  7472     17A5  3000               	movlw	0
  7473     17A6  00AA               	movwf	init_uart@baud+2
  7474     17A7  3025               	movlw	37
  7475     17A8  00A9               	movwf	init_uart@baud+1
  7476     17A9  3080               	movlw	128
  7477     17AA  00A8               	movwf	init_uart@baud
  7478     17AB  160A  118A  2611  160A  118A  	fcall	_init_uart
  7479     17B0                     l3642:
  7480                           
  7481                           ;main.c: 27:     potVal[0] = (new_mapped_value / 10) + '0';
  7482     17B0  30B7               	movlw	low (STR_7| (0+32768))
  7483     17B1  00F3               	movwf	puts@s
  7484     17B2  3085               	movlw	high (STR_7| (0+32768))
  7485     17B3  00F4               	movwf	puts@s+1
  7486     17B4  160A  118A  2569  160A  118A  	fcall	_puts
  7487     17B9                     l3644:
  7488                           
  7489                           ;main.c: 28:     potVal[1] = (new_mapped_value % 10) + '0';
  7490     17B9  178B               	bsf	11,7	;volatile
  7491     17BA                     l3646:
  7492                           
  7493                           ;main.c: 29:     potVal[2] = '\0';
  7494     17BA  170B               	bsf	11,6	;volatile
  7495     17BB                     l71:
  7496     17BB  0008               	return
  7497     17BC                     __end_of_config:
  7498                           
  7499                           	psect	text26
  7500     1569                     __ptext26:	
  7501 ;; *************** function _puts *****************
  7502 ;; Defined at:
  7503 ;;		line 46 in file "uart.c"
  7504 ;; Parameters:    Size  Location     Type
  7505 ;;  s               2    3[COMMON] PTR const unsigned char 
  7506 ;;		 -> STR_41(22), STR_39(2), download_log@logData(11), STR_7(17), 
  7507 ;; Auto vars:     Size  Location     Type
  7508 ;;		None
  7509 ;; Return value:  Size  Location     Type
  7510 ;;                  1    wreg      void 
  7511 ;; Registers used:
  7512 ;;		wreg, fsr0l, fsr0h, status,2, status,0, pclath, btemp1, cstack
  7513 ;; Tracked objects:
  7514 ;;		On entry : 0/0
  7515 ;;		On exit  : 0/0
  7516 ;;		Unchanged: 0/0
  7517 ;; Data sizes:     COMMON   BANK0   BANK1   BANK3   BANK2
  7518 ;;      Params:         2       0       0       0       0
  7519 ;;      Locals:         0       0       0       0       0
  7520 ;;      Temps:          0       0       0       0       0
  7521 ;;      Totals:         2       0       0       0       0
  7522 ;;Total ram usage:        2 bytes
  7523 ;; Hardware stack levels used: 1
  7524 ;; Hardware stack levels required when called: 1
  7525 ;; This function calls:
  7526 ;;		_putchar
  7527 ;; This function is called by:
  7528 ;;		_config
  7529 ;;		_download_log
  7530 ;; This function uses a non-reentrant model
  7531 ;;
  7532                           
  7533     1569                     _puts:	
  7534                           ;psect for function _puts
  7535                           
  7536     1569                     l2562:	
  7537                           ;incstack = 0
  7538                           ; Regs used in _puts: [wreg-fsr0h+status,2+status,0+pclath+btemp1+cstack]
  7539                           
  7540                           
  7541                           ;uart.c: 46: void puts(const char *s);uart.c: 47: {;uart.c: 48:     while (*s)
  7542     1569  2D7E               	goto	l2568
  7543     156A                     l2564:
  7544                           
  7545                           ;uart.c: 49:     {;uart.c: 50:         putchar(*s++);
  7546     156A  0874               	movf	puts@s+1,w
  7547     156B  00FF               	movwf	btemp1
  7548     156C  0873               	movf	puts@s,w
  7549     156D  0084               	movwf	4
  7550     156E  120A  118A  27EE  160A  118A  	fcall	stringtab
  7551     1573  160A  118A  23FF  160A  118A  	fcall	_putchar
  7552     1578                     l2566:
  7553     1578  3001               	movlw	1
  7554     1579  07F3               	addwf	puts@s,f
  7555     157A  1803               	skipnc
  7556     157B  0AF4               	incf	puts@s+1,f
  7557     157C  3000               	movlw	0
  7558     157D  07F4               	addwf	puts@s+1,f
  7559     157E                     l2568:
  7560                           
  7561                           ;uart.c: 48:     while (*s)
  7562     157E  0874               	movf	puts@s+1,w
  7563     157F  1283               	bcf	3,5	;RP0=0, select bank0
  7564     1580  1303               	bcf	3,6	;RP1=0, select bank0
  7565     1581  00FF               	movwf	btemp1
  7566     1582  0873               	movf	puts@s,w
  7567     1583  0084               	movwf	4
  7568     1584  120A  118A  27EE  160A  118A  	fcall	stringtab
  7569     1589  3A00               	xorlw	0
  7570     158A  1D03               	skipz
  7571     158B  2D8D               	goto	u1881
  7572     158C  2D8E               	goto	u1880
  7573     158D                     u1881:
  7574     158D  2D6A               	goto	l2564
  7575     158E                     u1880:
  7576     158E                     l581:
  7577     158E  0008               	return
  7578     158F                     __end_of_puts:
  7579                           
  7580                           	psect	text27
  7581     13FF                     __ptext27:	
  7582 ;; *************** function _putchar *****************
  7583 ;; Defined at:
  7584 ;;		line 31 in file "uart.c"
  7585 ;; Parameters:    Size  Location     Type
  7586 ;;  data            1    wreg     unsigned char 
  7587 ;; Auto vars:     Size  Location     Type
  7588 ;;  data            1    2[COMMON] unsigned char 
  7589 ;; Return value:  Size  Location     Type
  7590 ;;                  1    wreg      void 
  7591 ;; Registers used:
  7592 ;;		wreg
  7593 ;; Tracked objects:
  7594 ;;		On entry : 0/0
  7595 ;;		On exit  : 0/0
  7596 ;;		Unchanged: 0/0
  7597 ;; Data sizes:     COMMON   BANK0   BANK1   BANK3   BANK2
  7598 ;;      Params:         0       0       0       0       0
  7599 ;;      Locals:         1       0       0       0       0
  7600 ;;      Temps:          0       0       0       0       0
  7601 ;;      Totals:         1       0       0       0       0
  7602 ;;Total ram usage:        1 bytes
  7603 ;; Hardware stack levels used: 1
  7604 ;; Hardware stack levels required when called: 1
  7605 ;; This function calls:
  7606 ;;		Nothing
  7607 ;; This function is called by:
  7608 ;;		_puts
  7609 ;; This function uses a non-reentrant model
  7610 ;;
  7611                           
  7612     13FF                     _putchar:	
  7613                           ;psect for function _putchar
  7614                           
  7615                           
  7616                           ;incstack = 0
  7617                           ; Regs used in _putchar: [wreg]
  7618                           ;putchar@data stored from wreg
  7619     13FF  00F2               	movwf	putchar@data
  7620     1400                     l2410:
  7621                           
  7622                           ;uart.c: 31: void putchar(unsigned char data);uart.c: 32: {;uart.c: 34:     TXREG = data
      +                          ;
  7623     1400  0872               	movf	putchar@data,w
  7624     1401  1283               	bcf	3,5	;RP0=0, select bank0
  7625     1402  1303               	bcf	3,6	;RP1=0, select bank0
  7626     1403  0099               	movwf	25	;volatile
  7627     1404                     l573:	
  7628                           ;uart.c: 40:     } while (TXIF != 1);
  7629                           
  7630     1404  1E0C               	btfss	12,4	;volatile
  7631     1405  2C07               	goto	u1541
  7632     1406  2C08               	goto	u1540
  7633     1407                     u1541:
  7634     1407  2C04               	goto	l573
  7635     1408                     u1540:
  7636     1408                     l574:
  7637                           
  7638                           ;uart.c: 43:     TXIF = 0;
  7639     1408  120C               	bcf	12,4	;volatile
  7640     1409                     l575:
  7641     1409  0008               	return
  7642     140A                     __end_of_putchar:
  7643                           
  7644                           	psect	text28
  7645     1611                     __ptext28:	
  7646 ;; *************** function _init_uart *****************
  7647 ;; Defined at:
  7648 ;;		line 4 in file "uart.c"
  7649 ;; Parameters:    Size  Location     Type
  7650 ;;  baud            4    8[BANK0 ] unsigned long 
  7651 ;; Auto vars:     Size  Location     Type
  7652 ;;		None
  7653 ;; Return value:  Size  Location     Type
  7654 ;;                  1    wreg      void 
  7655 ;; Registers used:
  7656 ;;		wreg, status,2, status,0, pclath, cstack
  7657 ;; Tracked objects:
  7658 ;;		On entry : 0/0
  7659 ;;		On exit  : 0/0
  7660 ;;		Unchanged: 0/0
  7661 ;; Data sizes:     COMMON   BANK0   BANK1   BANK3   BANK2
  7662 ;;      Params:         0       4       0       0       0
  7663 ;;      Locals:         0       0       0       0       0
  7664 ;;      Temps:          0       4       0       0       0
  7665 ;;      Totals:         0       8       0       0       0
  7666 ;;Total ram usage:        8 bytes
  7667 ;; Hardware stack levels used: 1
  7668 ;; Hardware stack levels required when called: 2
  7669 ;; This function calls:
  7670 ;;		___lldiv
  7671 ;; This function is called by:
  7672 ;;		_config
  7673 ;; This function uses a non-reentrant model
  7674 ;;
  7675                           
  7676     1611                     _init_uart:	
  7677                           ;psect for function _init_uart
  7678                           
  7679     1611                     l2558:	
  7680                           ;incstack = 0
  7681                           ; Regs used in _init_uart: [wreg+status,2+status,0+pclath+cstack]
  7682                           
  7683                           
  7684                           ;uart.c: 4: void init_uart(unsigned long baud);uart.c: 5: {;uart.c: 7:     SPEN = 1;
  7685     1611  1283               	bcf	3,5	;RP0=0, select bank0
  7686     1612  1303               	bcf	3,6	;RP1=0, select bank0
  7687     1613  1798               	bsf	24,7	;volatile
  7688                           
  7689                           ;uart.c: 10:     CREN = 1;
  7690     1614  1618               	bsf	24,4	;volatile
  7691     1615                     l2560:
  7692                           
  7693                           ;uart.c: 13:     SPBRG = (20000000 / (16 * baud)) - 1;
  7694     1615  0828               	movf	init_uart@baud,w
  7695     1616  00AC               	movwf	??_init_uart
  7696     1617  0829               	movf	init_uart@baud+1,w
  7697     1618  00AD               	movwf	??_init_uart+1
  7698     1619  082A               	movf	init_uart@baud+2,w
  7699     161A  00AE               	movwf	??_init_uart+2
  7700     161B  082B               	movf	init_uart@baud+3,w
  7701     161C  00AF               	movwf	??_init_uart+3
  7702     161D  3004               	movlw	4
  7703     161E                     u1875:
  7704     161E  1003               	clrc
  7705     161F  0DAC               	rlf	??_init_uart,f
  7706     1620  0DAD               	rlf	??_init_uart+1,f
  7707     1621  0DAE               	rlf	??_init_uart+2,f
  7708     1622  0DAF               	rlf	??_init_uart+3,f
  7709     1623                     u1870:
  7710     1623  3EFF               	addlw	-1
  7711     1624  1D03               	skipz
  7712     1625  2E1E               	goto	u1875
  7713     1626  082F               	movf	??_init_uart+3,w
  7714     1627  00A3               	movwf	___lldiv@divisor+3
  7715     1628  082E               	movf	??_init_uart+2,w
  7716     1629  00A2               	movwf	___lldiv@divisor+2
  7717     162A  082D               	movf	??_init_uart+1,w
  7718     162B  00A1               	movwf	___lldiv@divisor+1
  7719     162C  082C               	movf	??_init_uart,w
  7720     162D  00A0               	movwf	___lldiv@divisor
  7721     162E  3001               	movlw	1
  7722     162F  00A7               	movwf	___lldiv@dividend+3
  7723     1630  3031               	movlw	49
  7724     1631  00A6               	movwf	___lldiv@dividend+2
  7725     1632  302D               	movlw	45
  7726     1633  00A5               	movwf	___lldiv@dividend+1
  7727     1634  3000               	movlw	0
  7728     1635  00A4               	movwf	___lldiv@dividend
  7729     1636  120A  158A  2280  160A  118A  	fcall	___lldiv
  7730     163B  1283               	bcf	3,5	;RP0=0, select bank0
  7731     163C  1303               	bcf	3,6	;RP1=0, select bank0
  7732     163D  0820               	movf	?___lldiv,w
  7733     163E  3EFF               	addlw	255
  7734     163F  1683               	bsf	3,5	;RP0=1, select bank1
  7735     1640  1303               	bcf	3,6	;RP1=0, select bank1
  7736     1641  0099               	movwf	25	;volatile
  7737     1642                     l563:
  7738     1642  0008               	return
  7739     1643                     __end_of_init_uart:
  7740                           
  7741                           	psect	text29
  7742     13DF                     __ptext29:	
  7743 ;; *************** function _init_timer0 *****************
  7744 ;; Defined at:
  7745 ;;		line 3 in file "timer.c"
  7746 ;; Parameters:    Size  Location     Type
  7747 ;;		None
  7748 ;; Auto vars:     Size  Location     Type
  7749 ;;		None
  7750 ;; Return value:  Size  Location     Type
  7751 ;;                  1    wreg      void 
  7752 ;; Registers used:
  7753 ;;		None
  7754 ;; Tracked objects:
  7755 ;;		On entry : 0/0
  7756 ;;		On exit  : 0/0
  7757 ;;		Unchanged: 0/0
  7758 ;; Data sizes:     COMMON   BANK0   BANK1   BANK3   BANK2
  7759 ;;      Params:         0       0       0       0       0
  7760 ;;      Locals:         0       0       0       0       0
  7761 ;;      Temps:          0       0       0       0       0
  7762 ;;      Totals:         0       0       0       0       0
  7763 ;;Total ram usage:        0 bytes
  7764 ;; Hardware stack levels used: 1
  7765 ;; Hardware stack levels required when called: 1
  7766 ;; This function calls:
  7767 ;;		Nothing
  7768 ;; This function is called by:
  7769 ;;		_config
  7770 ;; This function uses a non-reentrant model
  7771 ;;
  7772                           
  7773     13DF                     _init_timer0:	
  7774                           ;psect for function _init_timer0
  7775                           
  7776     13DF                     l2556:	
  7777                           ;incstack = 0
  7778                           ; Regs used in _init_timer0: []
  7779                           
  7780                           
  7781                           ;timer.c: 6:     T0CS = 0;
  7782     13DF  1683               	bsf	3,5	;RP0=1, select bank1
  7783     13E0  1303               	bcf	3,6	;RP1=0, select bank1
  7784     13E1  1281               	bcf	1,5	;volatile
  7785                           
  7786                           ;timer.c: 9:     PSA = 1;
  7787     13E2  1581               	bsf	1,3	;volatile
  7788                           
  7789                           ;timer.c: 11:     TMR0 = 6;
  7790     13E3  3006               	movlw	6
  7791     13E4  1283               	bcf	3,5	;RP0=0, select bank0
  7792     13E5  1303               	bcf	3,6	;RP1=0, select bank0
  7793     13E6  0081               	movwf	1	;volatile
  7794                           
  7795                           ;timer.c: 14:     TMR0IE = 1;
  7796     13E7  168B               	bsf	11,5	;volatile
  7797     13E8                     l491:
  7798     13E8  0008               	return
  7799     13E9                     __end_of_init_timer0:
  7800                           
  7801                           	psect	text30
  7802     170E                     __ptext30:	
  7803 ;; *************** function _init_i2c *****************
  7804 ;; Defined at:
  7805 ;;		line 4 in file "i2c.c"
  7806 ;; Parameters:    Size  Location     Type
  7807 ;;  baud            4    8[BANK0 ] unsigned long 
  7808 ;; Auto vars:     Size  Location     Type
  7809 ;;		None
  7810 ;; Return value:  Size  Location     Type
  7811 ;;                  1    wreg      void 
  7812 ;; Registers used:
  7813 ;;		wreg, status,2, status,0, pclath, cstack
  7814 ;; Tracked objects:
  7815 ;;		On entry : 0/0
  7816 ;;		On exit  : 0/0
  7817 ;;		Unchanged: 0/0
  7818 ;; Data sizes:     COMMON   BANK0   BANK1   BANK3   BANK2
  7819 ;;      Params:         0       4       0       0       0
  7820 ;;      Locals:         0       0       0       0       0
  7821 ;;      Temps:          0       4       0       0       0
  7822 ;;      Totals:         0       8       0       0       0
  7823 ;;Total ram usage:        8 bytes
  7824 ;; Hardware stack levels used: 1
  7825 ;; Hardware stack levels required when called: 2
  7826 ;; This function calls:
  7827 ;;		___lldiv
  7828 ;; This function is called by:
  7829 ;;		_config
  7830 ;; This function uses a non-reentrant model
  7831 ;;
  7832                           
  7833     170E                     _init_i2c:	
  7834                           ;psect for function _init_i2c
  7835                           
  7836     170E                     l2542:	
  7837                           ;incstack = 0
  7838                           ; Regs used in _init_i2c: [wreg+status,2+status,0+pclath+cstack]
  7839                           
  7840                           
  7841                           ;i2c.c: 4: void init_i2c(unsigned long baud);i2c.c: 5: {;i2c.c: 7:     SSPM3 = 1;
  7842     170E  1283               	bcf	3,5	;RP0=0, select bank0
  7843     170F  1303               	bcf	3,6	;RP1=0, select bank0
  7844     1710  1594               	bsf	20,3	;volatile
  7845     1711                     l2544:
  7846                           
  7847                           ;i2c.c: 10:     SSPADD = (unsigned char)(20000000 / (4 * baud)) - 1;
  7848     1711  0828               	movf	init_i2c@baud,w
  7849     1712  00AC               	movwf	??_init_i2c
  7850     1713  0829               	movf	init_i2c@baud+1,w
  7851     1714  00AD               	movwf	??_init_i2c+1
  7852     1715  082A               	movf	init_i2c@baud+2,w
  7853     1716  00AE               	movwf	??_init_i2c+2
  7854     1717  082B               	movf	init_i2c@baud+3,w
  7855     1718  00AF               	movwf	??_init_i2c+3
  7856     1719  3002               	movlw	2
  7857     171A                     u1865:
  7858     171A  1003               	clrc
  7859     171B  0DAC               	rlf	??_init_i2c,f
  7860     171C  0DAD               	rlf	??_init_i2c+1,f
  7861     171D  0DAE               	rlf	??_init_i2c+2,f
  7862     171E  0DAF               	rlf	??_init_i2c+3,f
  7863     171F                     u1860:
  7864     171F  3EFF               	addlw	-1
  7865     1720  1D03               	skipz
  7866     1721  2F1A               	goto	u1865
  7867     1722  082F               	movf	??_init_i2c+3,w
  7868     1723  00A3               	movwf	___lldiv@divisor+3
  7869     1724  082E               	movf	??_init_i2c+2,w
  7870     1725  00A2               	movwf	___lldiv@divisor+2
  7871     1726  082D               	movf	??_init_i2c+1,w
  7872     1727  00A1               	movwf	___lldiv@divisor+1
  7873     1728  082C               	movf	??_init_i2c,w
  7874     1729  00A0               	movwf	___lldiv@divisor
  7875     172A  3001               	movlw	1
  7876     172B  00A7               	movwf	___lldiv@dividend+3
  7877     172C  3031               	movlw	49
  7878     172D  00A6               	movwf	___lldiv@dividend+2
  7879     172E  302D               	movlw	45
  7880     172F  00A5               	movwf	___lldiv@dividend+1
  7881     1730  3000               	movlw	0
  7882     1731  00A4               	movwf	___lldiv@dividend
  7883     1732  120A  158A  2280  160A  118A  	fcall	___lldiv
  7884     1737  1283               	bcf	3,5	;RP0=0, select bank0
  7885     1738  1303               	bcf	3,6	;RP1=0, select bank0
  7886     1739  0820               	movf	?___lldiv,w
  7887     173A  3EFF               	addlw	255
  7888     173B  1683               	bsf	3,5	;RP0=1, select bank1
  7889     173C  1303               	bcf	3,6	;RP1=0, select bank1
  7890     173D  0093               	movwf	19	;volatile
  7891     173E                     l2546:
  7892                           
  7893                           ;i2c.c: 13:     SSPEN = 1;
  7894     173E  1283               	bcf	3,5	;RP0=0, select bank0
  7895     173F  1303               	bcf	3,6	;RP1=0, select bank0
  7896     1740  1694               	bsf	20,5	;volatile
  7897     1741                     l417:
  7898     1741  0008               	return
  7899     1742                     __end_of_init_i2c:
  7900                           
  7901                           	psect	text31
  7902     0A80                     __ptext31:	
  7903 ;; *************** function ___lldiv *****************
  7904 ;; Defined at:
  7905 ;;		line 5 in file "E:\embeded Sof\pic\sources\c99\common\__lldiv.c"
  7906 ;; Parameters:    Size  Location     Type
  7907 ;;  divisor         4    0[BANK0 ] unsigned long 
  7908 ;;  dividend        4    4[BANK0 ] unsigned long 
  7909 ;; Auto vars:     Size  Location     Type
  7910 ;;  quotient        4    3[COMMON] unsigned long 
  7911 ;;  counter         1    7[COMMON] unsigned char 
  7912 ;; Return value:  Size  Location     Type
  7913 ;;                  4    0[BANK0 ] unsigned long 
  7914 ;; Registers used:
  7915 ;;		wreg, status,2, status,0
  7916 ;; Tracked objects:
  7917 ;;		On entry : 0/0
  7918 ;;		On exit  : 0/0
  7919 ;;		Unchanged: 0/0
  7920 ;; Data sizes:     COMMON   BANK0   BANK1   BANK3   BANK2
  7921 ;;      Params:         0       8       0       0       0
  7922 ;;      Locals:         5       0       0       0       0
  7923 ;;      Temps:          1       0       0       0       0
  7924 ;;      Totals:         6       8       0       0       0
  7925 ;;Total ram usage:       14 bytes
  7926 ;; Hardware stack levels used: 1
  7927 ;; Hardware stack levels required when called: 1
  7928 ;; This function calls:
  7929 ;;		Nothing
  7930 ;; This function is called by:
  7931 ;;		_getPotVal
  7932 ;;		_init_i2c
  7933 ;;		_init_uart
  7934 ;; This function uses a non-reentrant model
  7935 ;;
  7936                           
  7937     0A80                     ___lldiv:	
  7938                           ;psect for function ___lldiv
  7939                           
  7940     0A80                     l2426:	
  7941                           ;incstack = 0
  7942                           ; Regs used in ___lldiv: [wreg+status,2+status,0]
  7943                           
  7944     0A80  3000               	movlw	0
  7945     0A81  00F6               	movwf	___lldiv@quotient+3
  7946     0A82  3000               	movlw	0
  7947     0A83  00F5               	movwf	___lldiv@quotient+2
  7948     0A84  3000               	movlw	0
  7949     0A85  00F4               	movwf	___lldiv@quotient+1
  7950     0A86  3000               	movlw	0
  7951     0A87  00F3               	movwf	___lldiv@quotient
  7952     0A88  1283               	bcf	3,5	;RP0=0, select bank0
  7953     0A89  1303               	bcf	3,6	;RP1=0, select bank0
  7954     0A8A  0823               	movf	___lldiv@divisor+3,w
  7955     0A8B  0422               	iorwf	___lldiv@divisor+2,w
  7956     0A8C  0421               	iorwf	___lldiv@divisor+1,w
  7957     0A8D  0420               	iorwf	___lldiv@divisor,w
  7958     0A8E  1903               	skipnz
  7959     0A8F  2A91               	goto	u1601
  7960     0A90  2A92               	goto	u1600
  7961     0A91                     u1601:
  7962     0A91  2ADD               	goto	l2446
  7963     0A92                     u1600:
  7964     0A92                     l2428:
  7965     0A92  3001               	movlw	1
  7966     0A93  00F7               	movwf	___lldiv@counter
  7967     0A94  2AA0               	goto	l2432
  7968     0A95                     l2430:
  7969     0A95  3001               	movlw	1
  7970     0A96  00F2               	movwf	??___lldiv
  7971     0A97                     u1615:
  7972     0A97  1003               	clrc
  7973     0A98  0DA0               	rlf	___lldiv@divisor,f
  7974     0A99  0DA1               	rlf	___lldiv@divisor+1,f
  7975     0A9A  0DA2               	rlf	___lldiv@divisor+2,f
  7976     0A9B  0DA3               	rlf	___lldiv@divisor+3,f
  7977     0A9C  0BF2               	decfsz	??___lldiv,f
  7978     0A9D  2A97               	goto	u1615
  7979     0A9E  3001               	movlw	1
  7980     0A9F  07F7               	addwf	___lldiv@counter,f
  7981     0AA0                     l2432:
  7982     0AA0  1FA3               	btfss	___lldiv@divisor+3,7
  7983     0AA1  2AA3               	goto	u1621
  7984     0AA2  2AA4               	goto	u1620
  7985     0AA3                     u1621:
  7986     0AA3  2A95               	goto	l2430
  7987     0AA4                     u1620:
  7988     0AA4                     l2434:
  7989     0AA4  3001               	movlw	1
  7990     0AA5  00F2               	movwf	??___lldiv
  7991     0AA6                     u1635:
  7992     0AA6  1003               	clrc
  7993     0AA7  0DF3               	rlf	___lldiv@quotient,f
  7994     0AA8  0DF4               	rlf	___lldiv@quotient+1,f
  7995     0AA9  0DF5               	rlf	___lldiv@quotient+2,f
  7996     0AAA  0DF6               	rlf	___lldiv@quotient+3,f
  7997     0AAB  0BF2               	decfsz	??___lldiv,f
  7998     0AAC  2AA6               	goto	u1635
  7999     0AAD                     l2436:
  8000     0AAD  0823               	movf	___lldiv@divisor+3,w
  8001     0AAE  0227               	subwf	___lldiv@dividend+3,w
  8002     0AAF  1D03               	skipz
  8003     0AB0  2ABB               	goto	u1645
  8004     0AB1  0822               	movf	___lldiv@divisor+2,w
  8005     0AB2  0226               	subwf	___lldiv@dividend+2,w
  8006     0AB3  1D03               	skipz
  8007     0AB4  2ABB               	goto	u1645
  8008     0AB5  0821               	movf	___lldiv@divisor+1,w
  8009     0AB6  0225               	subwf	___lldiv@dividend+1,w
  8010     0AB7  1D03               	skipz
  8011     0AB8  2ABB               	goto	u1645
  8012     0AB9  0820               	movf	___lldiv@divisor,w
  8013     0ABA  0224               	subwf	___lldiv@dividend,w
  8014     0ABB                     u1645:
  8015     0ABB  1C03               	skipc
  8016     0ABC  2ABE               	goto	u1641
  8017     0ABD  2ABF               	goto	u1640
  8018     0ABE                     u1641:
  8019     0ABE  2ACE               	goto	l2442
  8020     0ABF                     u1640:
  8021     0ABF                     l2438:
  8022     0ABF  0820               	movf	___lldiv@divisor,w
  8023     0AC0  02A4               	subwf	___lldiv@dividend,f
  8024     0AC1  0821               	movf	___lldiv@divisor+1,w
  8025     0AC2  1C03               	skipc
  8026     0AC3  0F21               	incfsz	___lldiv@divisor+1,w
  8027     0AC4  02A5               	subwf	___lldiv@dividend+1,f
  8028     0AC5  0822               	movf	___lldiv@divisor+2,w
  8029     0AC6  1C03               	skipc
  8030     0AC7  0F22               	incfsz	___lldiv@divisor+2,w
  8031     0AC8  02A6               	subwf	___lldiv@dividend+2,f
  8032     0AC9  0823               	movf	___lldiv@divisor+3,w
  8033     0ACA  1C03               	skipc
  8034     0ACB  0F23               	incfsz	___lldiv@divisor+3,w
  8035     0ACC  02A7               	subwf	___lldiv@dividend+3,f
  8036     0ACD                     l2440:
  8037     0ACD  1473               	bsf	___lldiv@quotient,0
  8038     0ACE                     l2442:
  8039     0ACE  3001               	movlw	1
  8040     0ACF                     u1655:
  8041     0ACF  1003               	clrc
  8042     0AD0  0CA3               	rrf	___lldiv@divisor+3,f
  8043     0AD1  0CA2               	rrf	___lldiv@divisor+2,f
  8044     0AD2  0CA1               	rrf	___lldiv@divisor+1,f
  8045     0AD3  0CA0               	rrf	___lldiv@divisor,f
  8046     0AD4  3EFF               	addlw	-1
  8047     0AD5  1D03               	skipz
  8048     0AD6  2ACF               	goto	u1655
  8049     0AD7                     l2444:
  8050     0AD7  3001               	movlw	1
  8051     0AD8  02F7               	subwf	___lldiv@counter,f
  8052     0AD9  1D03               	btfss	3,2
  8053     0ADA  2ADC               	goto	u1661
  8054     0ADB  2ADD               	goto	u1660
  8055     0ADC                     u1661:
  8056     0ADC  2AA4               	goto	l2434
  8057     0ADD                     u1660:
  8058     0ADD                     l2446:
  8059     0ADD  0876               	movf	___lldiv@quotient+3,w
  8060     0ADE  00A3               	movwf	?___lldiv+3
  8061     0ADF  0875               	movf	___lldiv@quotient+2,w
  8062     0AE0  00A2               	movwf	?___lldiv+2
  8063     0AE1  0874               	movf	___lldiv@quotient+1,w
  8064     0AE2  00A1               	movwf	?___lldiv+1
  8065     0AE3  0873               	movf	___lldiv@quotient,w
  8066     0AE4  00A0               	movwf	?___lldiv
  8067     0AE5                     l703:
  8068     0AE5  0008               	return
  8069     0AE6                     __end_of___lldiv:
  8070                           
  8071                           	psect	text32
  8072     1478                     __ptext32:	
  8073 ;; *************** function _init_ds1307 *****************
  8074 ;; Defined at:
  8075 ;;		line 5 in file "ds1307.c"
  8076 ;; Parameters:    Size  Location     Type
  8077 ;;		None
  8078 ;; Auto vars:     Size  Location     Type
  8079 ;;  dummy           1   14[BANK0 ] unsigned char 
  8080 ;; Return value:  Size  Location     Type
  8081 ;;                  1    wreg      void 
  8082 ;; Registers used:
  8083 ;;		wreg, status,2, status,0, pclath, cstack
  8084 ;; Tracked objects:
  8085 ;;		On entry : 0/0
  8086 ;;		On exit  : 0/0
  8087 ;;		Unchanged: 0/0
  8088 ;; Data sizes:     COMMON   BANK0   BANK1   BANK3   BANK2
  8089 ;;      Params:         0       0       0       0       0
  8090 ;;      Locals:         0       1       0       0       0
  8091 ;;      Temps:          0       0       0       0       0
  8092 ;;      Totals:         0       1       0       0       0
  8093 ;;Total ram usage:        1 bytes
  8094 ;; Hardware stack levels used: 1
  8095 ;; Hardware stack levels required when called: 5
  8096 ;; This function calls:
  8097 ;;		_read_ds1307
  8098 ;;		_write_ds1307
  8099 ;; This function is called by:
  8100 ;;		_config
  8101 ;; This function uses a non-reentrant model
  8102 ;;
  8103                           
  8104     1478                     _init_ds1307:	
  8105                           ;psect for function _init_ds1307
  8106                           
  8107     1478                     l2548:	
  8108                           ;incstack = 0
  8109                           ; Regs used in _init_ds1307: [wreg+status,2+status,0+pclath+cstack]
  8110                           
  8111                           
  8112                           ;ds1307.c: 7:     unsigned char dummy;;ds1307.c: 9:     dummy = read_ds1307(0x00);
  8113     1478  3000               	movlw	0
  8114     1479  160A  118A  26A8  160A  118A  	fcall	_read_ds1307
  8115     147E  1283               	bcf	3,5	;RP0=0, select bank0
  8116     147F  1303               	bcf	3,6	;RP1=0, select bank0
  8117     1480  00AE               	movwf	init_ds1307@dummy
  8118     1481                     l2550:
  8119                           
  8120                           ;ds1307.c: 10:     dummy = dummy & 0x7F;
  8121     1481  307F               	movlw	127
  8122     1482  05AE               	andwf	init_ds1307@dummy,f
  8123     1483                     l2552:
  8124                           
  8125                           ;ds1307.c: 11:     write_ds1307(0x00, dummy);
  8126     1483  082E               	movf	init_ds1307@dummy,w
  8127     1484  00AC               	movwf	write_ds1307@data
  8128     1485  3000               	movlw	0
  8129     1486  160A  118A  2520  160A  118A  	fcall	_write_ds1307
  8130     148B                     l457:
  8131     148B  0008               	return
  8132     148C                     __end_of_init_ds1307:
  8133                           
  8134                           	psect	text33
  8135     1520                     __ptext33:	
  8136 ;; *************** function _write_ds1307 *****************
  8137 ;; Defined at:
  8138 ;;		line 29 in file "ds1307.c"
  8139 ;; Parameters:    Size  Location     Type
  8140 ;;  addr            1    wreg     unsigned char 
  8141 ;;  data            1   12[BANK0 ] unsigned char 
  8142 ;; Auto vars:     Size  Location     Type
  8143 ;;  addr            1   13[BANK0 ] unsigned char 
  8144 ;; Return value:  Size  Location     Type
  8145 ;;                  1    wreg      void 
  8146 ;; Registers used:
  8147 ;;		wreg, status,2, status,0, pclath, cstack
  8148 ;; Tracked objects:
  8149 ;;		On entry : 0/0
  8150 ;;		On exit  : 0/0
  8151 ;;		Unchanged: 0/0
  8152 ;; Data sizes:     COMMON   BANK0   BANK1   BANK3   BANK2
  8153 ;;      Params:         0       1       0       0       0
  8154 ;;      Locals:         0       1       0       0       0
  8155 ;;      Temps:          0       0       0       0       0
  8156 ;;      Totals:         0       2       0       0       0
  8157 ;;Total ram usage:        2 bytes
  8158 ;; Hardware stack levels used: 1
  8159 ;; Hardware stack levels required when called: 2
  8160 ;; This function calls:
  8161 ;;		_i2c_start
  8162 ;;		_i2c_stop
  8163 ;;		_i2c_write
  8164 ;; This function is called by:
  8165 ;;		_init_ds1307
  8166 ;; This function uses a non-reentrant model
  8167 ;;
  8168                           
  8169     1520                     _write_ds1307:	
  8170                           ;psect for function _write_ds1307
  8171                           
  8172                           
  8173                           ;incstack = 0
  8174                           ; Regs used in _write_ds1307: [wreg+status,2+status,0+pclath+cstack]
  8175                           ;write_ds1307@addr stored from wreg
  8176     1520  1283               	bcf	3,5	;RP0=0, select bank0
  8177     1521  1303               	bcf	3,6	;RP1=0, select bank0
  8178     1522  00AD               	movwf	write_ds1307@addr
  8179     1523                     l2402:
  8180                           
  8181                           ;ds1307.c: 29: void write_ds1307(unsigned char addr, unsigned char data);ds1307.c: 30: {
      +                          ;ds1307.c: 31:     i2c_start();
  8182     1523  160A  118A  23CD  160A  118A  	fcall	_i2c_start
  8183                           
  8184                           ;ds1307.c: 32:     i2c_write(0b11010000);
  8185     1528  30D0               	movlw	208
  8186     1529  160A  118A  2424  160A  118A  	fcall	_i2c_write
  8187                           
  8188                           ;ds1307.c: 33:     i2c_write(addr);
  8189     152E  1283               	bcf	3,5	;RP0=0, select bank0
  8190     152F  1303               	bcf	3,6	;RP1=0, select bank0
  8191     1530  082D               	movf	write_ds1307@addr,w
  8192     1531  160A  118A  2424  160A  118A  	fcall	_i2c_write
  8193                           
  8194                           ;ds1307.c: 34:     i2c_write(data);
  8195     1536  1283               	bcf	3,5	;RP0=0, select bank0
  8196     1537  1303               	bcf	3,6	;RP1=0, select bank0
  8197     1538  082C               	movf	write_ds1307@data,w
  8198     1539  160A  118A  2424  160A  118A  	fcall	_i2c_write
  8199                           
  8200                           ;ds1307.c: 35:     i2c_stop();
  8201     153E  160A  118A  23D6  160A  118A  	fcall	_i2c_stop
  8202     1543                     l463:
  8203     1543  0008               	return
  8204     1544                     __end_of_write_ds1307:
  8205                           
  8206                           	psect	text34
  8207     16A8                     __ptext34:	
  8208 ;; *************** function _read_ds1307 *****************
  8209 ;; Defined at:
  8210 ;;		line 14 in file "ds1307.c"
  8211 ;; Parameters:    Size  Location     Type
  8212 ;;  addr            1    wreg     unsigned char 
  8213 ;; Auto vars:     Size  Location     Type
  8214 ;;  addr            1   12[BANK0 ] unsigned char 
  8215 ;;  data            1   13[BANK0 ] unsigned char 
  8216 ;; Return value:  Size  Location     Type
  8217 ;;                  1    wreg      unsigned char 
  8218 ;; Registers used:
  8219 ;;		wreg, status,2, status,0, pclath, cstack
  8220 ;; Tracked objects:
  8221 ;;		On entry : 0/0
  8222 ;;		On exit  : 0/0
  8223 ;;		Unchanged: 0/0
  8224 ;; Data sizes:     COMMON   BANK0   BANK1   BANK3   BANK2
  8225 ;;      Params:         0       0       0       0       0
  8226 ;;      Locals:         0       2       0       0       0
  8227 ;;      Temps:          0       0       0       0       0
  8228 ;;      Totals:         0       2       0       0       0
  8229 ;;Total ram usage:        2 bytes
  8230 ;; Hardware stack levels used: 1
  8231 ;; Hardware stack levels required when called: 1
  8232 ;; This function calls:
  8233 ;;		_i2c_read
  8234 ;;		_i2c_rep_start
  8235 ;;		_i2c_start
  8236 ;;		_i2c_stop
  8237 ;;		_i2c_write
  8238 ;; This function is called by:
  8239 ;;		_get_time
  8240 ;;		_init_ds1307
  8241 ;; This function uses a non-reentrant model
  8242 ;;
  8243                           
  8244     16A8                     _read_ds1307:	
  8245                           ;psect for function _read_ds1307
  8246                           
  8247                           
  8248                           ;incstack = 0
  8249                           ; Regs used in _read_ds1307: [wreg+status,2+status,0+pclath+cstack]
  8250                           ;read_ds1307@addr stored from wreg
  8251     16A8  1283               	bcf	3,5	;RP0=0, select bank0
  8252     16A9  1303               	bcf	3,6	;RP1=0, select bank0
  8253     16AA  00AC               	movwf	read_ds1307@addr
  8254     16AB                     l2352:
  8255                           
  8256                           ;ds1307.c: 14: unsigned char read_ds1307(unsigned char addr);ds1307.c: 15: {;ds1307.c: 1
      +                          6:     unsigned char data;;ds1307.c: 18:     i2c_start();
  8257     16AB  160A  118A  23CD  160A  118A  	fcall	_i2c_start
  8258                           
  8259                           ;ds1307.c: 19:     i2c_write(0b11010000);
  8260     16B0  30D0               	movlw	208
  8261     16B1  160A  118A  2424  160A  118A  	fcall	_i2c_write
  8262                           
  8263                           ;ds1307.c: 20:     i2c_write(addr);
  8264     16B6  1283               	bcf	3,5	;RP0=0, select bank0
  8265     16B7  1303               	bcf	3,6	;RP1=0, select bank0
  8266     16B8  082C               	movf	read_ds1307@addr,w
  8267     16B9  160A  118A  2424  160A  118A  	fcall	_i2c_write
  8268                           
  8269                           ;ds1307.c: 21:     i2c_rep_start();
  8270     16BE  160A  118A  23F4  160A  118A  	fcall	_i2c_rep_start
  8271                           
  8272                           ;ds1307.c: 22:     i2c_write(0b11010001);
  8273     16C3  30D1               	movlw	209
  8274     16C4  160A  118A  2424  160A  118A  	fcall	_i2c_write
  8275                           
  8276                           ;ds1307.c: 23:     data = i2c_read(0);
  8277     16C9  3000               	movlw	0
  8278     16CA  160A  118A  24DE  160A  118A  	fcall	_i2c_read
  8279     16CF  1283               	bcf	3,5	;RP0=0, select bank0
  8280     16D0  1303               	bcf	3,6	;RP1=0, select bank0
  8281     16D1  00AD               	movwf	read_ds1307@data
  8282                           
  8283                           ;ds1307.c: 24:     i2c_stop();
  8284     16D2  160A  118A  23D6  160A  118A  	fcall	_i2c_stop
  8285     16D7                     l2354:
  8286                           
  8287                           ;ds1307.c: 26:     return data;
  8288     16D7  1283               	bcf	3,5	;RP0=0, select bank0
  8289     16D8  1303               	bcf	3,6	;RP1=0, select bank0
  8290     16D9  082D               	movf	read_ds1307@data,w
  8291     16DA                     l460:
  8292     16DA  0008               	return
  8293     16DB                     __end_of_read_ds1307:
  8294                           
  8295                           	psect	text35
  8296     1424                     __ptext35:	
  8297 ;; *************** function _i2c_write *****************
  8298 ;; Defined at:
  8299 ;;		line 65 in file "i2c.c"
  8300 ;; Parameters:    Size  Location     Type
  8301 ;;  data            1    wreg     unsigned char 
  8302 ;; Auto vars:     Size  Location     Type
  8303 ;;  data            1   11[BANK0 ] unsigned char 
  8304 ;; Return value:  Size  Location     Type
  8305 ;;                  2  159[None  ] int 
  8306 ;; Registers used:
  8307 ;;		wreg, status,2, status,0, pclath, cstack
  8308 ;; Tracked objects:
  8309 ;;		On entry : 0/0
  8310 ;;		On exit  : 0/0
  8311 ;;		Unchanged: 0/0
  8312 ;; Data sizes:     COMMON   BANK0   BANK1   BANK3   BANK2
  8313 ;;      Params:         0       0       0       0       0
  8314 ;;      Locals:         0       1       0       0       0
  8315 ;;      Temps:          0       0       0       0       0
  8316 ;;      Totals:         0       1       0       0       0
  8317 ;;Total ram usage:        1 bytes
  8318 ;; Hardware stack levels used: 1
  8319 ;; Hardware stack levels required when called: 1
  8320 ;; This function calls:
  8321 ;;		_i2c_wait_for_idle
  8322 ;; This function is called by:
  8323 ;;		_set_time
  8324 ;;		_read_ds1307
  8325 ;;		_write_ds1307
  8326 ;;		_write_external_eeprom
  8327 ;;		_read_external_eeprom
  8328 ;; This function uses a non-reentrant model
  8329 ;;
  8330                           
  8331     1424                     _i2c_write:	
  8332                           ;psect for function _i2c_write
  8333                           
  8334                           
  8335                           ;incstack = 0
  8336                           ; Regs used in _i2c_write: [wreg+status,2+status,0+pclath+cstack]
  8337                           ;i2c_write@data stored from wreg
  8338     1424  1283               	bcf	3,5	;RP0=0, select bank0
  8339     1425  1303               	bcf	3,6	;RP1=0, select bank0
  8340     1426  00AB               	movwf	i2c_write@data
  8341     1427                     l2320:
  8342                           
  8343                           ;i2c.c: 65: int i2c_write(unsigned char data);i2c.c: 66: {;i2c.c: 67:     i2c_wait_for_i
      +                          dle();
  8344     1427  160A  118A  2417  160A  118A  	fcall	_i2c_wait_for_idle
  8345     142C                     l2322:
  8346                           
  8347                           ;i2c.c: 68:     SSPBUF = data;
  8348     142C  1283               	bcf	3,5	;RP0=0, select bank0
  8349     142D  1303               	bcf	3,6	;RP1=0, select bank0
  8350     142E  082B               	movf	i2c_write@data,w
  8351     142F  0093               	movwf	19	;volatile
  8352     1430                     l2324:
  8353     1430                     l440:	
  8354                           ;i2c.c: 70:     return !ACKSTAT;;	Return value of _i2c_write is never used
  8355                           
  8356     1430  0008               	return
  8357     1431                     __end_of_i2c_write:
  8358                           
  8359                           	psect	text36
  8360     13F4                     __ptext36:	
  8361 ;; *************** function _i2c_rep_start *****************
  8362 ;; Defined at:
  8363 ;;		line 28 in file "i2c.c"
  8364 ;; Parameters:    Size  Location     Type
  8365 ;;		None
  8366 ;; Auto vars:     Size  Location     Type
  8367 ;;		None
  8368 ;; Return value:  Size  Location     Type
  8369 ;;                  1    wreg      void 
  8370 ;; Registers used:
  8371 ;;		wreg, status,2, status,0, pclath, cstack
  8372 ;; Tracked objects:
  8373 ;;		On entry : 0/0
  8374 ;;		On exit  : 0/0
  8375 ;;		Unchanged: 0/0
  8376 ;; Data sizes:     COMMON   BANK0   BANK1   BANK3   BANK2
  8377 ;;      Params:         0       0       0       0       0
  8378 ;;      Locals:         0       0       0       0       0
  8379 ;;      Temps:          0       0       0       0       0
  8380 ;;      Totals:         0       0       0       0       0
  8381 ;;Total ram usage:        0 bytes
  8382 ;; Hardware stack levels used: 1
  8383 ;; Hardware stack levels required when called: 1
  8384 ;; This function calls:
  8385 ;;		_i2c_start
  8386 ;;		_i2c_stop
  8387 ;; This function is called by:
  8388 ;;		_read_ds1307
  8389 ;;		_read_external_eeprom
  8390 ;; This function uses a non-reentrant model
  8391 ;;
  8392                           
  8393     13F4                     _i2c_rep_start:	
  8394                           ;psect for function _i2c_rep_start
  8395                           
  8396     13F4                     l2328:	
  8397                           ;incstack = 0
  8398                           ; Regs used in _i2c_rep_start: [wreg+status,2+status,0+pclath+cstack]
  8399                           
  8400                           
  8401                           ;i2c.c: 30:     i2c_stop();
  8402     13F4  160A  118A  23D6  160A  118A  	fcall	_i2c_stop
  8403                           
  8404                           ;i2c.c: 31:     i2c_start();
  8405     13F9  160A  118A  23CD  160A  118A  	fcall	_i2c_start
  8406     13FE                     l429:
  8407     13FE  0008               	return
  8408     13FF                     __end_of_i2c_rep_start:
  8409                           
  8410                           	psect	text37
  8411     13D6                     __ptext37:	
  8412 ;; *************** function _i2c_stop *****************
  8413 ;; Defined at:
  8414 ;;		line 35 in file "i2c.c"
  8415 ;; Parameters:    Size  Location     Type
  8416 ;;		None
  8417 ;; Auto vars:     Size  Location     Type
  8418 ;;		None
  8419 ;; Return value:  Size  Location     Type
  8420 ;;                  1    wreg      void 
  8421 ;; Registers used:
  8422 ;;		wreg, status,2, status,0, pclath, cstack
  8423 ;; Tracked objects:
  8424 ;;		On entry : 0/0
  8425 ;;		On exit  : 0/0
  8426 ;;		Unchanged: 0/0
  8427 ;; Data sizes:     COMMON   BANK0   BANK1   BANK3   BANK2
  8428 ;;      Params:         0       0       0       0       0
  8429 ;;      Locals:         0       0       0       0       0
  8430 ;;      Temps:          0       0       0       0       0
  8431 ;;      Totals:         0       0       0       0       0
  8432 ;;Total ram usage:        0 bytes
  8433 ;; Hardware stack levels used: 1
  8434 ;; Hardware stack levels required when called: 1
  8435 ;; This function calls:
  8436 ;;		_i2c_wait_for_idle
  8437 ;; This function is called by:
  8438 ;;		_set_time
  8439 ;;		_i2c_rep_start
  8440 ;;		_read_ds1307
  8441 ;;		_write_ds1307
  8442 ;;		_write_external_eeprom
  8443 ;;		_read_external_eeprom
  8444 ;; This function uses a non-reentrant model
  8445 ;;
  8446                           
  8447     13D6                     _i2c_stop:	
  8448                           ;psect for function _i2c_stop
  8449                           
  8450     13D6                     l2316:	
  8451                           ;incstack = 0
  8452                           ; Regs used in _i2c_stop: [wreg+status,2+status,0+pclath+cstack]
  8453                           
  8454                           
  8455                           ;i2c.c: 37:     i2c_wait_for_idle();
  8456     13D6  160A  118A  2417  160A  118A  	fcall	_i2c_wait_for_idle
  8457     13DB                     l2318:
  8458                           
  8459                           ;i2c.c: 38:     PEN = 1;
  8460     13DB  1683               	bsf	3,5	;RP0=1, select bank1
  8461     13DC  1303               	bcf	3,6	;RP1=0, select bank1
  8462     13DD  1511               	bsf	17,2	;volatile
  8463     13DE                     l432:
  8464     13DE  0008               	return
  8465     13DF                     __end_of_i2c_stop:
  8466                           
  8467                           	psect	text38
  8468     13CD                     __ptext38:	
  8469 ;; *************** function _i2c_start *****************
  8470 ;; Defined at:
  8471 ;;		line 22 in file "i2c.c"
  8472 ;; Parameters:    Size  Location     Type
  8473 ;;		None
  8474 ;; Auto vars:     Size  Location     Type
  8475 ;;		None
  8476 ;; Return value:  Size  Location     Type
  8477 ;;                  1    wreg      void 
  8478 ;; Registers used:
  8479 ;;		wreg, status,2, status,0, pclath, cstack
  8480 ;; Tracked objects:
  8481 ;;		On entry : 0/0
  8482 ;;		On exit  : 0/0
  8483 ;;		Unchanged: 0/0
  8484 ;; Data sizes:     COMMON   BANK0   BANK1   BANK3   BANK2
  8485 ;;      Params:         0       0       0       0       0
  8486 ;;      Locals:         0       0       0       0       0
  8487 ;;      Temps:          0       0       0       0       0
  8488 ;;      Totals:         0       0       0       0       0
  8489 ;;Total ram usage:        0 bytes
  8490 ;; Hardware stack levels used: 1
  8491 ;; Hardware stack levels required when called: 1
  8492 ;; This function calls:
  8493 ;;		_i2c_wait_for_idle
  8494 ;; This function is called by:
  8495 ;;		_set_time
  8496 ;;		_i2c_rep_start
  8497 ;;		_read_ds1307
  8498 ;;		_write_ds1307
  8499 ;;		_write_external_eeprom
  8500 ;;		_read_external_eeprom
  8501 ;; This function uses a non-reentrant model
  8502 ;;
  8503                           
  8504     13CD                     _i2c_start:	
  8505                           ;psect for function _i2c_start
  8506                           
  8507     13CD                     l2312:	
  8508                           ;incstack = 0
  8509                           ; Regs used in _i2c_start: [wreg+status,2+status,0+pclath+cstack]
  8510                           
  8511                           
  8512                           ;i2c.c: 24:     i2c_wait_for_idle();
  8513     13CD  160A  118A  2417  160A  118A  	fcall	_i2c_wait_for_idle
  8514     13D2                     l2314:
  8515                           
  8516                           ;i2c.c: 25:     SEN = 1;
  8517     13D2  1683               	bsf	3,5	;RP0=1, select bank1
  8518     13D3  1303               	bcf	3,6	;RP1=0, select bank1
  8519     13D4  1411               	bsf	17,0	;volatile
  8520     13D5                     l426:
  8521     13D5  0008               	return
  8522     13D6                     __end_of_i2c_start:
  8523                           
  8524                           	psect	text39
  8525     14DE                     __ptext39:	
  8526 ;; *************** function _i2c_read *****************
  8527 ;; Defined at:
  8528 ;;		line 41 in file "i2c.c"
  8529 ;; Parameters:    Size  Location     Type
  8530 ;;  ack             1    wreg     unsigned char 
  8531 ;; Auto vars:     Size  Location     Type
  8532 ;;  ack             1    2[COMMON] unsigned char 
  8533 ;;  data            1    3[COMMON] unsigned char 
  8534 ;; Return value:  Size  Location     Type
  8535 ;;                  1    wreg      unsigned char 
  8536 ;; Registers used:
  8537 ;;		wreg, status,2, status,0, pclath, cstack
  8538 ;; Tracked objects:
  8539 ;;		On entry : 0/0
  8540 ;;		On exit  : 0/0
  8541 ;;		Unchanged: 0/0
  8542 ;; Data sizes:     COMMON   BANK0   BANK1   BANK3   BANK2
  8543 ;;      Params:         0       0       0       0       0
  8544 ;;      Locals:         2       0       0       0       0
  8545 ;;      Temps:          0       0       0       0       0
  8546 ;;      Totals:         2       0       0       0       0
  8547 ;;Total ram usage:        2 bytes
  8548 ;; Hardware stack levels used: 1
  8549 ;; Hardware stack levels required when called: 1
  8550 ;; This function calls:
  8551 ;;		_i2c_wait_for_idle
  8552 ;; This function is called by:
  8553 ;;		_read_ds1307
  8554 ;;		_read_external_eeprom
  8555 ;; This function uses a non-reentrant model
  8556 ;;
  8557                           
  8558     14DE                     _i2c_read:	
  8559                           ;psect for function _i2c_read
  8560                           
  8561                           
  8562                           ;incstack = 0
  8563                           ; Regs used in _i2c_read: [wreg+status,2+status,0+pclath+cstack]
  8564                           ;i2c_read@ack stored from wreg
  8565     14DE  00F2               	movwf	i2c_read@ack
  8566     14DF                     l2330:
  8567                           
  8568                           ;i2c.c: 41: unsigned char i2c_read(unsigned char ack);i2c.c: 42: {;i2c.c: 43:     unsign
      +                          ed char data;;i2c.c: 45:     i2c_wait_for_idle();
  8569     14DF  160A  118A  2417  160A  118A  	fcall	_i2c_wait_for_idle
  8570     14E4                     l2332:
  8571                           
  8572                           ;i2c.c: 46:     RCEN = 1;
  8573     14E4  1683               	bsf	3,5	;RP0=1, select bank1
  8574     14E5  1303               	bcf	3,6	;RP1=0, select bank1
  8575     14E6  1591               	bsf	17,3	;volatile
  8576                           
  8577                           ;i2c.c: 48:     i2c_wait_for_idle();
  8578     14E7  160A  118A  2417  160A  118A  	fcall	_i2c_wait_for_idle
  8579     14EC                     l2334:
  8580                           
  8581                           ;i2c.c: 49:     data = SSPBUF;
  8582     14EC  1283               	bcf	3,5	;RP0=0, select bank0
  8583     14ED  1303               	bcf	3,6	;RP1=0, select bank0
  8584     14EE  0813               	movf	19,w	;volatile
  8585     14EF  00F3               	movwf	i2c_read@data
  8586     14F0                     l2336:
  8587                           
  8588                           ;i2c.c: 51:     if (ack == 1)
  8589     14F0  0372               	decf	i2c_read@ack,w
  8590     14F1  1D03               	btfss	3,2
  8591     14F2  2CF4               	goto	u1461
  8592     14F3  2CF5               	goto	u1460
  8593     14F4                     u1461:
  8594     14F4  2CF9               	goto	l435
  8595     14F5                     u1460:
  8596     14F5                     l2338:
  8597                           
  8598                           ;i2c.c: 52:     {;i2c.c: 53:         ACKDT = 1;
  8599     14F5  1683               	bsf	3,5	;RP0=1, select bank1
  8600     14F6  1303               	bcf	3,6	;RP1=0, select bank1
  8601     14F7  1691               	bsf	17,5	;volatile
  8602                           
  8603                           ;i2c.c: 54:     }
  8604     14F8  2CFC               	goto	l436
  8605     14F9                     l435:	
  8606                           ;i2c.c: 55:     else
  8607                           
  8608                           
  8609                           ;i2c.c: 56:     {;i2c.c: 57:         ACKDT = 0;
  8610     14F9  1683               	bsf	3,5	;RP0=1, select bank1
  8611     14FA  1303               	bcf	3,6	;RP1=0, select bank1
  8612     14FB  1291               	bcf	17,5	;volatile
  8613     14FC                     l436:	
  8614                           ;i2c.c: 58:     }
  8615                           
  8616                           
  8617                           ;i2c.c: 60:     ACKEN = 1;
  8618     14FC  1611               	bsf	17,4	;volatile
  8619     14FD                     l2340:
  8620                           
  8621                           ;i2c.c: 62:     return data;
  8622     14FD  0873               	movf	i2c_read@data,w
  8623     14FE                     l437:
  8624     14FE  0008               	return
  8625     14FF                     __end_of_i2c_read:
  8626                           
  8627                           	psect	text40
  8628     1417                     __ptext40:	
  8629 ;; *************** function _i2c_wait_for_idle *****************
  8630 ;; Defined at:
  8631 ;;		line 16 in file "i2c.c"
  8632 ;; Parameters:    Size  Location     Type
  8633 ;;		None
  8634 ;; Auto vars:     Size  Location     Type
  8635 ;;		None
  8636 ;; Return value:  Size  Location     Type
  8637 ;;                  1    wreg      void 
  8638 ;; Registers used:
  8639 ;;		wreg, status,2
  8640 ;; Tracked objects:
  8641 ;;		On entry : 0/0
  8642 ;;		On exit  : 0/0
  8643 ;;		Unchanged: 0/0
  8644 ;; Data sizes:     COMMON   BANK0   BANK1   BANK3   BANK2
  8645 ;;      Params:         0       0       0       0       0
  8646 ;;      Locals:         0       0       0       0       0
  8647 ;;      Temps:          0       0       0       0       0
  8648 ;;      Totals:         0       0       0       0       0
  8649 ;;Total ram usage:        0 bytes
  8650 ;; Hardware stack levels used: 1
  8651 ;; Hardware stack levels required when called: 1
  8652 ;; This function calls:
  8653 ;;		Nothing
  8654 ;; This function is called by:
  8655 ;;		_i2c_start
  8656 ;;		_i2c_stop
  8657 ;;		_i2c_read
  8658 ;;		_i2c_write
  8659 ;; This function uses a non-reentrant model
  8660 ;;
  8661                           
  8662     1417                     _i2c_wait_for_idle:	
  8663                           ;psect for function _i2c_wait_for_idle
  8664                           
  8665     1417                     l2308:	
  8666                           ;incstack = 0
  8667                           ; Regs used in _i2c_wait_for_idle: [wreg+status,2]
  8668                           
  8669     1417                     l420:	
  8670                           ;i2c.c: 19:     while (R_nW || (SSPCON2 & 0x1F));
  8671                           
  8672     1417  1683               	bsf	3,5	;RP0=1, select bank1
  8673     1418  1303               	bcf	3,6	;RP1=0, select bank1
  8674     1419  1914               	btfsc	20,2	;volatile
  8675     141A  2C1C               	goto	u1441
  8676     141B  2C1D               	goto	u1440
  8677     141C                     u1441:
  8678     141C  2C17               	goto	l420
  8679     141D                     u1440:
  8680     141D                     l2310:
  8681     141D  0811               	movf	17,w	;volatile
  8682     141E  391F               	andlw	31
  8683     141F  1D03               	btfss	3,2
  8684     1420  2C22               	goto	u1451
  8685     1421  2C23               	goto	u1450
  8686     1422                     u1451:
  8687     1422  2C17               	goto	l420
  8688     1423                     u1450:
  8689     1423                     l423:
  8690     1423  0008               	return
  8691     1424                     __end_of_i2c_wait_for_idle:
  8692                           
  8693                           	psect	text41
  8694     13BF                     __ptext41:	
  8695 ;; *************** function _init_digital_keypad *****************
  8696 ;; Defined at:
  8697 ;;		line 4 in file "digi.c"
  8698 ;; Parameters:    Size  Location     Type
  8699 ;;		None
  8700 ;; Auto vars:     Size  Location     Type
  8701 ;;		None
  8702 ;; Return value:  Size  Location     Type
  8703 ;;                  1    wreg      void 
  8704 ;; Registers used:
  8705 ;;		wreg, status,2
  8706 ;; Tracked objects:
  8707 ;;		On entry : 0/0
  8708 ;;		On exit  : 0/0
  8709 ;;		Unchanged: 0/0
  8710 ;; Data sizes:     COMMON   BANK0   BANK1   BANK3   BANK2
  8711 ;;      Params:         0       0       0       0       0
  8712 ;;      Locals:         0       0       0       0       0
  8713 ;;      Temps:          0       0       0       0       0
  8714 ;;      Totals:         0       0       0       0       0
  8715 ;;Total ram usage:        0 bytes
  8716 ;; Hardware stack levels used: 1
  8717 ;; Hardware stack levels required when called: 1
  8718 ;; This function calls:
  8719 ;;		Nothing
  8720 ;; This function is called by:
  8721 ;;		_config
  8722 ;; This function uses a non-reentrant model
  8723 ;;
  8724                           
  8725     13BF                     _init_digital_keypad:	
  8726                           ;psect for function _init_digital_keypad
  8727                           
  8728     13BF                     l2554:	
  8729                           ;incstack = 0
  8730                           ; Regs used in _init_digital_keypad: [wreg+status,2]
  8731                           
  8732                           
  8733                           ;digi.c: 7:     TRISB = TRISB | 0x3F;
  8734     13BF  1683               	bsf	3,5	;RP0=1, select bank1
  8735     13C0  1303               	bcf	3,6	;RP1=0, select bank1
  8736     13C1  0806               	movf	6,w	;volatile
  8737     13C2  383F               	iorlw	63
  8738     13C3  0086               	movwf	6	;volatile
  8739     13C4                     l470:
  8740     13C4  0008               	return
  8741     13C5                     __end_of_init_digital_keypad:
  8742                           
  8743                           	psect	text42
  8744     13E9                     __ptext42:	
  8745 ;; *************** function _init_clcd *****************
  8746 ;; Defined at:
  8747 ;;		line 39 in file "clcd.c"
  8748 ;; Parameters:    Size  Location     Type
  8749 ;;		None
  8750 ;; Auto vars:     Size  Location     Type
  8751 ;;		None
  8752 ;; Return value:  Size  Location     Type
  8753 ;;                  1    wreg      void 
  8754 ;; Registers used:
  8755 ;;		wreg, status,2, status,0, pclath, cstack
  8756 ;; Tracked objects:
  8757 ;;		On entry : 0/0
  8758 ;;		On exit  : 0/0
  8759 ;;		Unchanged: 0/0
  8760 ;; Data sizes:     COMMON   BANK0   BANK1   BANK3   BANK2
  8761 ;;      Params:         0       0       0       0       0
  8762 ;;      Locals:         0       0       0       0       0
  8763 ;;      Temps:          0       0       0       0       0
  8764 ;;      Totals:         0       0       0       0       0
  8765 ;;Total ram usage:        0 bytes
  8766 ;; Hardware stack levels used: 1
  8767 ;; Hardware stack levels required when called: 3
  8768 ;; This function calls:
  8769 ;;		_init_display_controller
  8770 ;; This function is called by:
  8771 ;;		_config
  8772 ;; This function uses a non-reentrant model
  8773 ;;
  8774                           
  8775     13E9                     _init_clcd:	
  8776                           ;psect for function _init_clcd
  8777                           
  8778     13E9                     l3576:	
  8779                           ;incstack = 0
  8780                           ; Regs used in _init_clcd: [wreg+status,2+status,0+pclath+cstack]
  8781                           
  8782                           
  8783                           ;clcd.c: 42:     TRISD = 0x00;
  8784     13E9  1683               	bsf	3,5	;RP0=1, select bank1
  8785     13EA  1303               	bcf	3,6	;RP1=0, select bank1
  8786     13EB  0188               	clrf	8	;volatile
  8787     13EC                     l3578:
  8788                           
  8789                           ;clcd.c: 45:     TRISE2 = 0;
  8790     13EC  1109               	bcf	9,2	;volatile
  8791     13ED                     l3580:
  8792                           
  8793                           ;clcd.c: 46:     TRISE1 = 0;
  8794     13ED  1089               	bcf	9,1	;volatile
  8795     13EE                     l3582:
  8796                           
  8797                           ;clcd.c: 48:     init_display_controller();
  8798     13EE  120A  158A  2171  160A  118A  	fcall	_init_display_controller
  8799     13F3                     l379:
  8800     13F3  0008               	return
  8801     13F4                     __end_of_init_clcd:
  8802                           
  8803                           	psect	text43
  8804     0971                     __ptext43:	
  8805 ;; *************** function _init_display_controller *****************
  8806 ;; Defined at:
  8807 ;;		line 16 in file "clcd.c"
  8808 ;; Parameters:    Size  Location     Type
  8809 ;;		None
  8810 ;; Auto vars:     Size  Location     Type
  8811 ;;		None
  8812 ;; Return value:  Size  Location     Type
  8813 ;;                  1    wreg      void 
  8814 ;; Registers used:
  8815 ;;		wreg, status,2, status,0, pclath, cstack
  8816 ;; Tracked objects:
  8817 ;;		On entry : 0/0
  8818 ;;		On exit  : 0/0
  8819 ;;		Unchanged: 0/0
  8820 ;; Data sizes:     COMMON   BANK0   BANK1   BANK3   BANK2
  8821 ;;      Params:         0       0       0       0       0
  8822 ;;      Locals:         0       0       0       0       0
  8823 ;;      Temps:          2       0       0       0       0
  8824 ;;      Totals:         2       0       0       0       0
  8825 ;;Total ram usage:        2 bytes
  8826 ;; Hardware stack levels used: 1
  8827 ;; Hardware stack levels required when called: 2
  8828 ;; This function calls:
  8829 ;;		_clcd_write
  8830 ;; This function is called by:
  8831 ;;		_init_clcd
  8832 ;; This function uses a non-reentrant model
  8833 ;;
  8834                           
  8835     0971                     _init_display_controller:	
  8836                           ;psect for function _init_display_controller
  8837                           
  8838     0971                     l3474:	
  8839                           ;incstack = 0
  8840                           ; Regs used in _init_display_controller: [wreg+status,2+status,0+pclath+cstack]
  8841                           
  8842                           
  8843                           ;clcd.c: 19:     _delay((unsigned long)((30)*(20000000/4000.0)));
  8844     0971  30C3               	movlw	195
  8845     0972  00F7               	movwf	??_init_display_controller+1
  8846     0973  30CD               	movlw	205
  8847     0974  00F6               	movwf	??_init_display_controller
  8848     0975                     u4057:
  8849     0975  0BF6               	decfsz	??_init_display_controller,f
  8850     0976  2975               	goto	u4057
  8851     0977  0BF7               	decfsz	??_init_display_controller+1,f
  8852     0978  2975               	goto	u4057
  8853     0979                     l3476:
  8854                           
  8855                           ;clcd.c: 22:     clcd_write(0x33, 0);
  8856     0979  01F2               	clrf	clcd_write@mode
  8857     097A  3033               	movlw	51
  8858     097B  160A  118A  24BE  120A  158A  	fcall	_clcd_write
  8859     0980                     l3478:
  8860                           
  8861                           ;clcd.c: 23:      _delay((unsigned long)((4100)*(20000000/4000000.0)));
  8862     0980  301B               	movlw	27
  8863     0981  00F7               	movwf	??_init_display_controller+1
  8864     0982  309E               	movlw	158
  8865     0983  00F6               	movwf	??_init_display_controller
  8866     0984                     u4067:
  8867     0984  0BF6               	decfsz	??_init_display_controller,f
  8868     0985  2984               	goto	u4067
  8869     0986  0BF7               	decfsz	??_init_display_controller+1,f
  8870     0987  2984               	goto	u4067
  8871     0988  0000               	nop
  8872                           
  8873                           ;clcd.c: 24:      clcd_write(0x33, 0);
  8874     0989  01F2               	clrf	clcd_write@mode
  8875     098A  3033               	movlw	51
  8876     098B  160A  118A  24BE  120A  158A  	fcall	_clcd_write
  8877     0990                     l3480:
  8878                           
  8879                           ;clcd.c: 25:     _delay((unsigned long)((100)*(20000000/4000000.0)));
  8880     0990  30A6               	movlw	166
  8881     0991  00F6               	movwf	??_init_display_controller
  8882     0992                     u4077:
  8883     0992  0BF6               	decfsz	??_init_display_controller,f
  8884     0993  2992               	goto	u4077
  8885     0994  0000               	nop
  8886     0995                     l3482:
  8887                           
  8888                           ;clcd.c: 26:      clcd_write(0x33, 0);
  8889     0995  01F2               	clrf	clcd_write@mode
  8890     0996  3033               	movlw	51
  8891     0997  160A  118A  24BE  120A  158A  	fcall	_clcd_write
  8892     099C                     l3484:
  8893                           
  8894                           ;clcd.c: 27:      _delay((unsigned long)((1)*(20000000/4000000.0)));
  8895     099C  299D               	nop2	;2 cycle nop
  8896     099D  299E               	nop2	;2 cycle nop
  8897     099E  0000               	nop
  8898     099F                     l3486:
  8899                           
  8900                           ;clcd.c: 29:     clcd_write(0x38, 0);
  8901     099F  01F2               	clrf	clcd_write@mode
  8902     09A0  3038               	movlw	56
  8903     09A1  160A  118A  24BE  120A  158A  	fcall	_clcd_write
  8904     09A6                     l3488:
  8905                           
  8906                           ;clcd.c: 30:      _delay((unsigned long)((100)*(20000000/4000000.0)));
  8907     09A6  30A6               	movlw	166
  8908     09A7  00F6               	movwf	??_init_display_controller
  8909     09A8                     u4087:
  8910     09A8  0BF6               	decfsz	??_init_display_controller,f
  8911     09A9  29A8               	goto	u4087
  8912     09AA  0000               	nop
  8913                           
  8914                           ;clcd.c: 32:      clcd_write(0x01, 0);
  8915     09AB  01F2               	clrf	clcd_write@mode
  8916     09AC  3001               	movlw	1
  8917     09AD  160A  118A  24BE  120A  158A  	fcall	_clcd_write
  8918     09B2                     l3490:
  8919                           
  8920                           ;clcd.c: 33:     _delay((unsigned long)((100)*(20000000/4000000.0)));
  8921     09B2  30A6               	movlw	166
  8922     09B3  00F6               	movwf	??_init_display_controller
  8923     09B4                     u4097:
  8924     09B4  0BF6               	decfsz	??_init_display_controller,f
  8925     09B5  29B4               	goto	u4097
  8926     09B6  0000               	nop
  8927     09B7                     l3492:
  8928                           
  8929                           ;clcd.c: 35:     clcd_write(0x0C, 0);
  8930     09B7  01F2               	clrf	clcd_write@mode
  8931     09B8  300C               	movlw	12
  8932     09B9  160A  118A  24BE  120A  158A  	fcall	_clcd_write
  8933                           
  8934                           ;clcd.c: 36:     _delay((unsigned long)((100)*(20000000/4000000.0)));
  8935     09BE  30A6               	movlw	166
  8936     09BF  00F6               	movwf	??_init_display_controller
  8937     09C0                     u4107:
  8938     09C0  0BF6               	decfsz	??_init_display_controller,f
  8939     09C1  29C0               	goto	u4107
  8940     09C2  0000               	nop
  8941     09C3                     l376:
  8942     09C3  0008               	return
  8943     09C4                     __end_of_init_display_controller:
  8944                           
  8945                           	psect	text44
  8946     0800                     __ptext44:	
  8947 ;; *************** function _init_adc *****************
  8948 ;; Defined at:
  8949 ;;		line 3 in file "adc.c"
  8950 ;; Parameters:    Size  Location     Type
  8951 ;;		None
  8952 ;; Auto vars:     Size  Location     Type
  8953 ;;		None
  8954 ;; Return value:  Size  Location     Type
  8955 ;;                  1    wreg      void 
  8956 ;; Registers used:
  8957 ;;		None
  8958 ;; Tracked objects:
  8959 ;;		On entry : 0/0
  8960 ;;		On exit  : 0/0
  8961 ;;		Unchanged: 0/0
  8962 ;; Data sizes:     COMMON   BANK0   BANK1   BANK3   BANK2
  8963 ;;      Params:         0       0       0       0       0
  8964 ;;      Locals:         0       0       0       0       0
  8965 ;;      Temps:          0       0       0       0       0
  8966 ;;      Totals:         0       0       0       0       0
  8967 ;;Total ram usage:        0 bytes
  8968 ;; Hardware stack levels used: 1
  8969 ;; Hardware stack levels required when called: 1
  8970 ;; This function calls:
  8971 ;;		Nothing
  8972 ;; This function is called by:
  8973 ;;		_config
  8974 ;; This function uses a non-reentrant model
  8975 ;;
  8976                           
  8977     0800                     _init_adc:	
  8978                           ;psect for function _init_adc
  8979                           
  8980     0800                     l2540:	
  8981                           ;incstack = 0
  8982                           ; Regs used in _init_adc: []
  8983                           
  8984                           
  8985                           ;adc.c: 6:     ADFM = 1;
  8986     0800  1683               	bsf	3,5	;RP0=1, select bank1
  8987     0801  1303               	bcf	3,6	;RP1=0, select bank1
  8988     0802  179F               	bsf	31,7	;volatile
  8989                           
  8990                           ;adc.c: 9:     ADON = 1;
  8991     0803  1283               	bcf	3,5	;RP0=0, select bank0
  8992     0804  1303               	bcf	3,6	;RP1=0, select bank0
  8993     0805  141F               	bsf	31,0	;volatile
  8994     0806                     l350:
  8995     0806  0008               	return
  8996     0807                     __end_of_init_adc:
  8997                           
  8998                           	psect	text45
  8999     15E1                     __ptext45:	
  9000 ;; *************** function _clear_logs *****************
  9001 ;; Defined at:
  9002 ;;		line 359 in file "bb.c"
  9003 ;; Parameters:    Size  Location     Type
  9004 ;;		None
  9005 ;; Auto vars:     Size  Location     Type
  9006 ;;		None
  9007 ;; Return value:  Size  Location     Type
  9008 ;;                  1    wreg      void 
  9009 ;; Registers used:
  9010 ;;		wreg, fsr0l, fsr0h, status,2, status,0, pclath, btemp1, cstack
  9011 ;; Tracked objects:
  9012 ;;		On entry : 0/0
  9013 ;;		On exit  : 0/0
  9014 ;;		Unchanged: 0/0
  9015 ;; Data sizes:     COMMON   BANK0   BANK1   BANK3   BANK2
  9016 ;;      Params:         0       0       0       0       0
  9017 ;;      Locals:         0       0       0       0       0
  9018 ;;      Temps:          3       0       0       0       0
  9019 ;;      Totals:         3       0       0       0       0
  9020 ;;Total ram usage:        3 bytes
  9021 ;; Hardware stack levels used: 1
  9022 ;; Hardware stack levels required when called: 2
  9023 ;; This function calls:
  9024 ;;		_clcd_print
  9025 ;; This function is called by:
  9026 ;;		_main
  9027 ;; This function uses a non-reentrant model
  9028 ;;
  9029                           
  9030     15E1                     _clear_logs:	
  9031                           ;psect for function _clear_logs
  9032                           
  9033     15E1                     l3996:	
  9034                           ;incstack = 0
  9035                           ; Regs used in _clear_logs: [wreg-fsr0h+status,2+status,0+pclath+btemp1+cstack]
  9036                           
  9037                           
  9038                           ;bb.c: 362:     if(event_count>=0){
  9039     15E1  1283               	bcf	3,5	;RP0=0, select bank0
  9040     15E2  1303               	bcf	3,6	;RP1=0, select bank0
  9041     15E3  1BEB               	btfsc	_event_count+1,7
  9042     15E4  2DE6               	goto	u3601
  9043     15E5  2DE7               	goto	u3600
  9044     15E6                     u3601:
  9045     15E6  2E04               	goto	l4004
  9046     15E7                     u3600:
  9047     15E7                     l3998:
  9048                           
  9049                           ;bb.c: 363:     event_count=-1;
  9050     15E7  30FF               	movlw	255
  9051     15E8  00EA               	movwf	_event_count
  9052     15E9  30FF               	movlw	255
  9053     15EA  00EB               	movwf	_event_count+1
  9054     15EB                     l4000:
  9055                           
  9056                           ;bb.c: 364:     clcd_print("cleared logs..",(0x80 + 0));
  9057     15EB  3007               	movlw	low (STR_32| (0+32768))
  9058     15EC  00A0               	movwf	clcd_print@str
  9059     15ED  3086               	movlw	high (STR_32| (0+32768))
  9060     15EE  00A1               	movwf	clcd_print@str+1
  9061     15EF  3080               	movlw	128
  9062     15F0  00A2               	movwf	clcd_print@addr
  9063     15F1  160A  118A  2675  160A  118A  	fcall	_clcd_print
  9064     15F6                     l4002:
  9065                           
  9066                           ;bb.c: 365:     _delay((unsigned long)((1000)*(20000000/4000.0)));
  9067     15F6  301A               	movlw	26
  9068     15F7  00F8               	movwf	??_clear_logs+2
  9069     15F8  305E               	movlw	94
  9070     15F9  00F7               	movwf	??_clear_logs+1
  9071     15FA  306E               	movlw	110
  9072     15FB  00F6               	movwf	??_clear_logs
  9073     15FC                     u4117:
  9074     15FC  0BF6               	decfsz	??_clear_logs,f
  9075     15FD  2DFC               	goto	u4117
  9076     15FE  0BF7               	decfsz	??_clear_logs+1,f
  9077     15FF  2DFC               	goto	u4117
  9078     1600  0BF8               	decfsz	??_clear_logs+2,f
  9079     1601  2DFC               	goto	u4117
  9080     1602  0000               	nop
  9081                           
  9082                           ;bb.c: 367:     }
  9083     1603  2E10               	goto	l294
  9084     1604                     l4004:
  9085                           
  9086                           ;bb.c: 370:     clcd_print("nothing to clear ..",(0x80 + 0));
  9087     1604  302B               	movlw	low (STR_33| (0+32768))
  9088     1605  00A0               	movwf	clcd_print@str
  9089     1606  3085               	movlw	high (STR_33| (0+32768))
  9090     1607  00A1               	movwf	clcd_print@str+1
  9091     1608  3080               	movlw	128
  9092     1609  00A2               	movwf	clcd_print@addr
  9093     160A  160A  118A  2675  160A  118A  	fcall	_clcd_print
  9094     160F  2DF6               	goto	l4002
  9095     1610                     l294:
  9096     1610  0008               	return
  9097     1611                     __end_of_clear_logs:
  9098                           
  9099                           	psect	text46
  9100     06A8                     __ptext46:	
  9101 ;; *************** function _change_passwd *****************
  9102 ;; Defined at:
  9103 ;;		line 250 in file "bb.c"
  9104 ;; Parameters:    Size  Location     Type
  9105 ;;  key             1    wreg     unsigned char 
  9106 ;; Auto vars:     Size  Location     Type
  9107 ;;  key             1    8[BANK0 ] unsigned char 
  9108 ;; Return value:  Size  Location     Type
  9109 ;;                  1    wreg      unsigned char 
  9110 ;; Registers used:
  9111 ;;		wreg, fsr0l, fsr0h, status,2, status,0, pclath, btemp1, cstack
  9112 ;; Tracked objects:
  9113 ;;		On entry : 0/0
  9114 ;;		On exit  : 0/0
  9115 ;;		Unchanged: 0/0
  9116 ;; Data sizes:     COMMON   BANK0   BANK1   BANK3   BANK2
  9117 ;;      Params:         0       0       0       0       0
  9118 ;;      Locals:         0       1       0       0       0
  9119 ;;      Temps:          0       3       0       0       0
  9120 ;;      Totals:         0       4       0       0       0
  9121 ;;Total ram usage:        4 bytes
  9122 ;; Hardware stack levels used: 1
  9123 ;; Hardware stack levels required when called: 3
  9124 ;; This function calls:
  9125 ;;		_clcd_print
  9126 ;;		_clcd_putch
  9127 ;;		_clcd_write
  9128 ;;		_clear_screen
  9129 ;;		_strncmp
  9130 ;; This function is called by:
  9131 ;;		_main
  9132 ;; This function uses a non-reentrant model
  9133 ;;
  9134                           
  9135     06A8                     _change_passwd:	
  9136                           ;psect for function _change_passwd
  9137                           
  9138                           
  9139                           ;incstack = 0
  9140                           ; Regs used in _change_passwd: [wreg-fsr0h+status,2+status,0+pclath+btemp1+cstack]
  9141                           ;change_passwd@key stored from wreg
  9142     06A8  1283               	bcf	3,5	;RP0=0, select bank0
  9143     06A9  1303               	bcf	3,6	;RP1=0, select bank0
  9144     06AA  00A8               	movwf	change_passwd@key
  9145     06AB                     l3904:
  9146                           
  9147                           ;bb.c: 252:        static unsigned char upass[9];;bb.c: 253:        static int i=0;;bb.c
      +                          : 254:        static int sonce=0,once=0,pos=0;;bb.c: 256:        if(once==0){
  9148     06AB  1683               	bsf	3,5	;RP0=1, select bank1
  9149     06AC  1303               	bcf	3,6	;RP1=0, select bank1
  9150     06AD  0833               	movf	change_passwd@once^(0+128),w
  9151     06AE  0434               	iorwf	(change_passwd@once+1)^(0+128),w
  9152     06AF  1D03               	btfss	3,2
  9153     06B0  2EB2               	goto	u3511
  9154     06B1  2EB3               	goto	u3510
  9155     06B2                     u3511:
  9156     06B2  2ED9               	goto	l3916
  9157     06B3                     u3510:
  9158     06B3                     l3906:
  9159                           
  9160                           ;bb.c: 257:            clear_screen();
  9161     06B3  160A  118A  240A  120A  118A  	fcall	_clear_screen
  9162     06B8                     l3908:
  9163                           
  9164                           ;bb.c: 258:         clcd_print("Enter New PassWd",(0x80 + 0));
  9165     06B8  3095               	movlw	low (STR_26| (0+32768))
  9166     06B9  1283               	bcf	3,5	;RP0=0, select bank0
  9167     06BA  1303               	bcf	3,6	;RP1=0, select bank0
  9168     06BB  00A0               	movwf	clcd_print@str
  9169     06BC  3085               	movlw	high (STR_26| (0+32768))
  9170     06BD  00A1               	movwf	clcd_print@str+1
  9171     06BE  3080               	movlw	128
  9172     06BF  00A2               	movwf	clcd_print@addr
  9173     06C0  160A  118A  2675  120A  118A  	fcall	_clcd_print
  9174     06C5                     l3910:
  9175                           
  9176                           ;bb.c: 259:         clcd_write((0xC0 + 5), 0);
  9177     06C5  01F2               	clrf	clcd_write@mode
  9178     06C6  30C5               	movlw	197
  9179     06C7  160A  118A  24BE  120A  118A  	fcall	_clcd_write
  9180     06CC                     l3912:
  9181                           
  9182                           ;bb.c: 260:         clcd_write(0x0F,0);
  9183     06CC  01F2               	clrf	clcd_write@mode
  9184     06CD  300F               	movlw	15
  9185     06CE  160A  118A  24BE  120A  118A  	fcall	_clcd_write
  9186     06D3                     l3914:
  9187                           
  9188                           ;bb.c: 261:         once=1;
  9189     06D3  3001               	movlw	1
  9190     06D4  1683               	bsf	3,5	;RP0=1, select bank1
  9191     06D5  1303               	bcf	3,6	;RP1=0, select bank1
  9192     06D6  00B3               	movwf	change_passwd@once^(0+128)
  9193     06D7  3000               	movlw	0
  9194     06D8  00B4               	movwf	(change_passwd@once^(0+128)+1)
  9195     06D9                     l3916:
  9196                           
  9197                           ;bb.c: 264:        if(key==0x37 && i<8){
  9198     06D9  3037               	movlw	55
  9199     06DA  1283               	bcf	3,5	;RP0=0, select bank0
  9200     06DB  1303               	bcf	3,6	;RP1=0, select bank0
  9201     06DC  0628               	xorwf	change_passwd@key,w
  9202     06DD  1D03               	btfss	3,2
  9203     06DE  2EE0               	goto	u3521
  9204     06DF  2EE1               	goto	u3520
  9205     06E0                     u3521:
  9206     06E0  2F0E               	goto	l3928
  9207     06E1                     u3520:
  9208     06E1                     l3918:
  9209     06E1  084F               	movf	change_passwd@i+1,w
  9210     06E2  3A80               	xorlw	128
  9211     06E3  00FF               	movwf	btemp1
  9212     06E4  3080               	movlw	128
  9213     06E5  027F               	subwf	btemp1,w
  9214     06E6  1D03               	skipz
  9215     06E7  2EEA               	goto	u3535
  9216     06E8  3008               	movlw	8
  9217     06E9  024E               	subwf	change_passwd@i,w
  9218     06EA                     u3535:
  9219     06EA  1803               	skipnc
  9220     06EB  2EED               	goto	u3531
  9221     06EC  2EEE               	goto	u3530
  9222     06ED                     u3531:
  9223     06ED  2F0E               	goto	l3928
  9224     06EE                     u3530:
  9225     06EE                     l3920:
  9226                           
  9227                           ;bb.c: 265:            clcd_putch('1',(0xC0 + pos+5));
  9228     06EE  1283               	bcf	3,5	;RP0=0, select bank0
  9229     06EF  1303               	bcf	3,6	;RP1=0, select bank0
  9230     06F0  084C               	movf	change_passwd@pos,w
  9231     06F1  3EC5               	addlw	197
  9232     06F2  00F8               	movwf	clcd_putch@addr
  9233     06F3  3031               	movlw	49
  9234     06F4  160A  118A  248C  120A  118A  	fcall	_clcd_putch
  9235     06F9                     l3922:
  9236                           
  9237                           ;bb.c: 266:            upass[i]='1';
  9238     06F9  1283               	bcf	3,5	;RP0=0, select bank0
  9239     06FA  1303               	bcf	3,6	;RP1=0, select bank0
  9240     06FB  084E               	movf	change_passwd@i,w
  9241     06FC  3ECA               	addlw	(low (change_passwd@upass| 0))& (0+255)
  9242     06FD  0084               	movwf	4
  9243     06FE  3031               	movlw	49
  9244     06FF  1383               	bcf	3,7	;select IRP bank1
  9245     0700  0080               	movwf	0
  9246     0701                     l3924:
  9247                           
  9248                           ;bb.c: 267:            i++;
  9249     0701  3001               	movlw	1
  9250     0702  07CE               	addwf	change_passwd@i,f
  9251     0703  1803               	skipnc
  9252     0704  0ACF               	incf	change_passwd@i+1,f
  9253     0705  3000               	movlw	0
  9254     0706  07CF               	addwf	change_passwd@i+1,f
  9255     0707                     l3926:
  9256                           
  9257                           ;bb.c: 268:            pos++;
  9258     0707  3001               	movlw	1
  9259     0708  07CC               	addwf	change_passwd@pos,f
  9260     0709  1803               	skipnc
  9261     070A  0ACD               	incf	change_passwd@pos+1,f
  9262     070B  3000               	movlw	0
  9263     070C  07CD               	addwf	change_passwd@pos+1,f
  9264                           
  9265                           ;bb.c: 270:        }
  9266     070D  2F37               	goto	l3940
  9267     070E                     l3928:
  9268     070E  302F               	movlw	47
  9269     070F  1283               	bcf	3,5	;RP0=0, select bank0
  9270     0710  1303               	bcf	3,6	;RP1=0, select bank0
  9271     0711  0628               	xorwf	change_passwd@key,w
  9272     0712  1D03               	btfss	3,2
  9273     0713  2F15               	goto	u3541
  9274     0714  2F16               	goto	u3540
  9275     0715                     u3541:
  9276     0715  2F37               	goto	l3940
  9277     0716                     u3540:
  9278     0716                     l3930:
  9279     0716  084F               	movf	change_passwd@i+1,w
  9280     0717  3A80               	xorlw	128
  9281     0718  00FF               	movwf	btemp1
  9282     0719  3080               	movlw	128
  9283     071A  027F               	subwf	btemp1,w
  9284     071B  1D03               	skipz
  9285     071C  2F1F               	goto	u3555
  9286     071D  3008               	movlw	8
  9287     071E  024E               	subwf	change_passwd@i,w
  9288     071F                     u3555:
  9289     071F  1803               	skipnc
  9290     0720  2F22               	goto	u3551
  9291     0721  2F23               	goto	u3550
  9292     0722                     u3551:
  9293     0722  2F37               	goto	l3940
  9294     0723                     u3550:
  9295     0723                     l3932:
  9296                           
  9297                           ;bb.c: 272:            clcd_putch('2',(0xC0 + pos+5));
  9298     0723  1283               	bcf	3,5	;RP0=0, select bank0
  9299     0724  1303               	bcf	3,6	;RP1=0, select bank0
  9300     0725  084C               	movf	change_passwd@pos,w
  9301     0726  3EC5               	addlw	197
  9302     0727  00F8               	movwf	clcd_putch@addr
  9303     0728  3032               	movlw	50
  9304     0729  160A  118A  248C  120A  118A  	fcall	_clcd_putch
  9305     072E                     l3934:
  9306                           
  9307                           ;bb.c: 273:            upass[i]='2';
  9308     072E  1283               	bcf	3,5	;RP0=0, select bank0
  9309     072F  1303               	bcf	3,6	;RP1=0, select bank0
  9310     0730  084E               	movf	change_passwd@i,w
  9311     0731  3ECA               	addlw	(low (change_passwd@upass| 0))& (0+255)
  9312     0732  0084               	movwf	4
  9313     0733  3032               	movlw	50
  9314     0734  1383               	bcf	3,7	;select IRP bank1
  9315     0735  0080               	movwf	0
  9316     0736  2F01               	goto	l3924
  9317     0737                     l3940:
  9318                           
  9319                           ;bb.c: 279:        if(i==4 && sonce==0){
  9320     0737  3004               	movlw	4
  9321     0738  1283               	bcf	3,5	;RP0=0, select bank0
  9322     0739  1303               	bcf	3,6	;RP1=0, select bank0
  9323     073A  064E               	xorwf	change_passwd@i,w
  9324     073B  044F               	iorwf	change_passwd@i+1,w
  9325     073C  1D03               	btfss	3,2
  9326     073D  2F3F               	goto	u3561
  9327     073E  2F40               	goto	u3560
  9328     073F                     u3561:
  9329     073F  2F72               	goto	l3956
  9330     0740                     u3560:
  9331     0740                     l3942:
  9332     0740  1683               	bsf	3,5	;RP0=1, select bank1
  9333     0741  1303               	bcf	3,6	;RP1=0, select bank1
  9334     0742  0835               	movf	change_passwd@sonce^(0+128),w
  9335     0743  0436               	iorwf	(change_passwd@sonce+1)^(0+128),w
  9336     0744  1D03               	btfss	3,2
  9337     0745  2F47               	goto	u3571
  9338     0746  2F48               	goto	u3570
  9339     0747                     u3571:
  9340     0747  2F72               	goto	l3956
  9341     0748                     u3570:
  9342     0748                     l3944:
  9343                           
  9344                           ;bb.c: 280:             clear_screen();
  9345     0748  160A  118A  240A  120A  118A  	fcall	_clear_screen
  9346     074D                     l3946:
  9347                           
  9348                           ;bb.c: 281:         clcd_print("Re Enter PassWd",(0x80 + 0));
  9349     074D  30C8               	movlw	low (STR_27| (0+32768))
  9350     074E  1283               	bcf	3,5	;RP0=0, select bank0
  9351     074F  1303               	bcf	3,6	;RP1=0, select bank0
  9352     0750  00A0               	movwf	clcd_print@str
  9353     0751  3085               	movlw	high (STR_27| (0+32768))
  9354     0752  00A1               	movwf	clcd_print@str+1
  9355     0753  3080               	movlw	128
  9356     0754  00A2               	movwf	clcd_print@addr
  9357     0755  160A  118A  2675  120A  118A  	fcall	_clcd_print
  9358     075A                     l3948:
  9359                           
  9360                           ;bb.c: 282:         clcd_write((0xC0 + 5), 0);
  9361     075A  01F2               	clrf	clcd_write@mode
  9362     075B  30C5               	movlw	197
  9363     075C  160A  118A  24BE  120A  118A  	fcall	_clcd_write
  9364     0761                     l3950:
  9365                           
  9366                           ;bb.c: 283:         clcd_write(0x0F,0);
  9367     0761  01F2               	clrf	clcd_write@mode
  9368     0762  300F               	movlw	15
  9369     0763  160A  118A  24BE  120A  118A  	fcall	_clcd_write
  9370     0768                     l3952:
  9371                           
  9372                           ;bb.c: 284:         sonce=1;
  9373     0768  3001               	movlw	1
  9374     0769  1683               	bsf	3,5	;RP0=1, select bank1
  9375     076A  1303               	bcf	3,6	;RP1=0, select bank1
  9376     076B  00B5               	movwf	change_passwd@sonce^(0+128)
  9377     076C  3000               	movlw	0
  9378     076D  00B6               	movwf	(change_passwd@sonce^(0+128)+1)
  9379     076E                     l3954:
  9380                           
  9381                           ;bb.c: 285:         pos=0;
  9382     076E  1283               	bcf	3,5	;RP0=0, select bank0
  9383     076F  1303               	bcf	3,6	;RP1=0, select bank0
  9384     0770  01CC               	clrf	change_passwd@pos
  9385     0771  01CD               	clrf	change_passwd@pos+1
  9386     0772                     l3956:
  9387                           
  9388                           ;bb.c: 288:        if(i==8){
  9389     0772  3008               	movlw	8
  9390     0773  1283               	bcf	3,5	;RP0=0, select bank0
  9391     0774  064E               	xorwf	change_passwd@i,w
  9392     0775  044F               	iorwf	change_passwd@i+1,w
  9393     0776  1D03               	btfss	3,2
  9394     0777  2F79               	goto	u3581
  9395     0778  2F7A               	goto	u3580
  9396     0779                     u3581:
  9397     0779  2FED               	goto	l280
  9398     077A                     u3580:
  9399     077A                     l3958:
  9400                           
  9401                           ;bb.c: 289:             clcd_write( 0x0C,0);
  9402     077A  01F2               	clrf	clcd_write@mode
  9403     077B  300C               	movlw	12
  9404     077C  160A  118A  24BE  120A  118A  	fcall	_clcd_write
  9405     0781                     l3960:
  9406                           
  9407                           ;bb.c: 291:            if(strncmp(upass,&upass[4],4)==0){
  9408     0781  30CA               	movlw	(low (change_passwd@upass| 0))& (0+255)
  9409     0782  00F2               	movwf	strncmp@l
  9410     0783  30CE               	movlw	(low ((change_passwd@upass| 0+4)))& (0+255)
  9411     0784  00F3               	movwf	strncmp@r
  9412     0785  3004               	movlw	4
  9413     0786  00F4               	movwf	strncmp@n
  9414     0787  3000               	movlw	0
  9415     0788  00F5               	movwf	strncmp@n+1
  9416     0789  120A  158A  2087  120A  118A  	fcall	_strncmp
  9417     078E  0872               	movf	?_strncmp,w
  9418     078F  0473               	iorwf	?_strncmp+1,w
  9419     0790  1D03               	btfss	3,2
  9420     0791  2F93               	goto	u3591
  9421     0792  2F94               	goto	u3590
  9422     0793                     u3591:
  9423     0793  2FCD               	goto	l3984
  9424     0794                     u3590:
  9425     0794                     l3962:
  9426                           
  9427                           ;bb.c: 292:              clear_screen();
  9428     0794  160A  118A  240A  120A  118A  	fcall	_clear_screen
  9429     0799                     l3964:
  9430                           
  9431                           ;bb.c: 293:               clcd_print("PassWd change ",(0x80 + 0));
  9432     0799  30F8               	movlw	low (STR_28| (0+32768))
  9433     079A  1283               	bcf	3,5	;RP0=0, select bank0
  9434     079B  1303               	bcf	3,6	;RP1=0, select bank0
  9435     079C  00A0               	movwf	clcd_print@str
  9436     079D  3085               	movlw	high (STR_28| (0+32768))
  9437     079E  00A1               	movwf	clcd_print@str+1
  9438     079F  3080               	movlw	128
  9439     07A0  00A2               	movwf	clcd_print@addr
  9440     07A1  160A  118A  2675  120A  118A  	fcall	_clcd_print
  9441     07A6                     l3966:
  9442                           
  9443                           ;bb.c: 294:               clcd_print("Sucessful ",(0xC0 + 0));
  9444     07A6  305B               	movlw	low (STR_29| (0+32768))
  9445     07A7  1283               	bcf	3,5	;RP0=0, select bank0
  9446     07A8  1303               	bcf	3,6	;RP1=0, select bank0
  9447     07A9  00A0               	movwf	clcd_print@str
  9448     07AA  3086               	movlw	high (STR_29| (0+32768))
  9449     07AB  00A1               	movwf	clcd_print@str+1
  9450     07AC  30C0               	movlw	192
  9451     07AD  00A2               	movwf	clcd_print@addr
  9452     07AE  160A  118A  2675  120A  118A  	fcall	_clcd_print
  9453     07B3                     l3968:
  9454                           
  9455                           ;bb.c: 295:               pass[0]=upass[0];
  9456     07B3  1683               	bsf	3,5	;RP0=1, select bank1
  9457     07B4  1303               	bcf	3,6	;RP1=0, select bank1
  9458     07B5  084A               	movf	change_passwd@upass^(0+128),w
  9459     07B6  00E2               	movwf	_pass^(0+128)
  9460     07B7                     l3970:
  9461                           
  9462                           ;bb.c: 296:               pass[1]=upass[1];
  9463     07B7  084B               	movf	(change_passwd@upass^(0+128)+1),w
  9464     07B8  00E3               	movwf	(_pass^(0+128)+1)
  9465     07B9                     l3972:
  9466                           
  9467                           ;bb.c: 297:               pass[2]=upass[2];
  9468     07B9  084C               	movf	(change_passwd@upass^(0+128)+2),w
  9469     07BA  00E4               	movwf	(_pass^(0+128)+2)
  9470     07BB                     l3974:
  9471                           
  9472                           ;bb.c: 298:               pass[3]=upass[3];
  9473     07BB  084D               	movf	(change_passwd@upass^(0+128)+3),w
  9474     07BC  00E5               	movwf	(_pass^(0+128)+3)
  9475     07BD                     l3976:
  9476                           
  9477                           ;bb.c: 300:               _delay((unsigned long)((2000)*(20000000/4000.0)));
  9478     07BD  3033               	movlw	51
  9479     07BE  1283               	bcf	3,5	;RP0=0, select bank0
  9480     07BF  1303               	bcf	3,6	;RP1=0, select bank0
  9481     07C0  00A7               	movwf	??_change_passwd+2
  9482     07C1  30BB               	movlw	187
  9483     07C2  00A6               	movwf	??_change_passwd+1
  9484     07C3  30DF               	movlw	223
  9485     07C4  00A5               	movwf	??_change_passwd
  9486     07C5                     u4127:
  9487     07C5  0BA5               	decfsz	??_change_passwd,f
  9488     07C6  2FC5               	goto	u4127
  9489     07C7  0BA6               	decfsz	??_change_passwd+1,f
  9490     07C8  2FC5               	goto	u4127
  9491     07C9  0BA7               	decfsz	??_change_passwd+2,f
  9492     07CA  2FC5               	goto	u4127
  9493     07CB                     l3978:
  9494                           
  9495                           ;bb.c: 301:               return 0x07;
  9496     07CB  3007               	movlw	7
  9497     07CC  2FED               	goto	l280
  9498     07CD                     l3984:
  9499                           
  9500                           ;bb.c: 304:            clear_screen();
  9501     07CD  160A  118A  240A  120A  118A  	fcall	_clear_screen
  9502     07D2                     l3986:
  9503                           
  9504                           ;bb.c: 305:               clcd_print("PassWd change",(0x80 + 0));
  9505     07D2  3034               	movlw	low (STR_30| (0+32768))
  9506     07D3  1283               	bcf	3,5	;RP0=0, select bank0
  9507     07D4  1303               	bcf	3,6	;RP1=0, select bank0
  9508     07D5  00A0               	movwf	clcd_print@str
  9509     07D6  3086               	movlw	high (STR_30| (0+32768))
  9510     07D7  00A1               	movwf	clcd_print@str+1
  9511     07D8  3080               	movlw	128
  9512     07D9  00A2               	movwf	clcd_print@addr
  9513     07DA  160A  118A  2675  120A  118A  	fcall	_clcd_print
  9514     07DF                     l3988:
  9515                           
  9516                           ;bb.c: 306:               clcd_print("Faild",(0xC0 + 0));
  9517     07DF  3082               	movlw	low (STR_31| (0+32768))
  9518     07E0  1283               	bcf	3,5	;RP0=0, select bank0
  9519     07E1  1303               	bcf	3,6	;RP1=0, select bank0
  9520     07E2  00A0               	movwf	clcd_print@str
  9521     07E3  3086               	movlw	high (STR_31| (0+32768))
  9522     07E4  00A1               	movwf	clcd_print@str+1
  9523     07E5  30C0               	movlw	192
  9524     07E6  00A2               	movwf	clcd_print@addr
  9525     07E7  160A  118A  2675  120A  118A  	fcall	_clcd_print
  9526     07EC  2FBD               	goto	l3976
  9527     07ED                     l280:
  9528     07ED  0008               	return
  9529     07EE                     __end_of_change_passwd:
  9530                           
  9531                           	psect	text47
  9532     0887                     __ptext47:	
  9533 ;; *************** function _strncmp *****************
  9534 ;; Defined at:
  9535 ;;		line 3 in file "E:\embeded Sof\pic\sources\c99\common\strncmp.c"
  9536 ;; Parameters:    Size  Location     Type
  9537 ;;  l               1    2[COMMON] PTR const unsigned char 
  9538 ;;		 -> change_passwd@upass(9), 
  9539 ;;  r               1    3[COMMON] PTR const unsigned char 
  9540 ;;		 -> change_passwd@upass(9), 
  9541 ;;  n               2    4[COMMON] unsigned int 
  9542 ;; Auto vars:     Size  Location     Type
  9543 ;;		None
  9544 ;; Return value:  Size  Location     Type
  9545 ;;                  2    2[COMMON] int 
  9546 ;; Registers used:
  9547 ;;		wreg, fsr0l, fsr0h, status,2, status,0
  9548 ;; Tracked objects:
  9549 ;;		On entry : 0/0
  9550 ;;		On exit  : 0/0
  9551 ;;		Unchanged: 0/0
  9552 ;; Data sizes:     COMMON   BANK0   BANK1   BANK3   BANK2
  9553 ;;      Params:         4       0       0       0       0
  9554 ;;      Locals:         0       0       0       0       0
  9555 ;;      Temps:          2       0       0       0       0
  9556 ;;      Totals:         6       0       0       0       0
  9557 ;;Total ram usage:        6 bytes
  9558 ;; Hardware stack levels used: 1
  9559 ;; Hardware stack levels required when called: 1
  9560 ;; This function calls:
  9561 ;;		Nothing
  9562 ;; This function is called by:
  9563 ;;		_change_passwd
  9564 ;; This function uses a non-reentrant model
  9565 ;;
  9566                           
  9567     0887                     _strncmp:	
  9568                           ;psect for function _strncmp
  9569                           
  9570     0887                     l2614:	
  9571                           ;incstack = 0
  9572                           ; Regs used in _strncmp: [wreg-fsr0h+status,2+status,0]
  9573                           
  9574     0887  3001               	movlw	1
  9575     0888  02F4               	subwf	strncmp@n,f
  9576     0889  3000               	movlw	0
  9577     088A  1C03               	skipc
  9578     088B  03F5               	decf	strncmp@n+1,f
  9579     088C  02F5               	subwf	strncmp@n+1,f
  9580     088D  0A74               	incf	strncmp@n,w
  9581     088E  1D03               	skipz
  9582     088F  2894               	goto	u1921
  9583     0890  0A75               	incf	strncmp@n+1,w
  9584     0891  1D03               	btfss	3,2
  9585     0892  2894               	goto	u1921
  9586     0893  2895               	goto	u1920
  9587     0894                     u1921:
  9588     0894  28A2               	goto	l2624
  9589     0895                     u1920:
  9590     0895                     l2616:
  9591     0895  01F2               	clrf	?_strncmp
  9592     0896  01F3               	clrf	?_strncmp+1
  9593     0897  28D1               	goto	l1141
  9594     0898                     l2620:
  9595     0898  3001               	movlw	1
  9596     0899  07F2               	addwf	strncmp@l,f
  9597     089A  3001               	movlw	1
  9598     089B  07F3               	addwf	strncmp@r,f
  9599     089C                     l2622:
  9600     089C  3001               	movlw	1
  9601     089D  02F4               	subwf	strncmp@n,f
  9602     089E  3000               	movlw	0
  9603     089F  1C03               	skipc
  9604     08A0  03F5               	decf	strncmp@n+1,f
  9605     08A1  02F5               	subwf	strncmp@n+1,f
  9606     08A2                     l2624:
  9607     08A2  0872               	movf	strncmp@l,w
  9608     08A3  0084               	movwf	4
  9609     08A4  1383               	bcf	3,7	;select IRP bank0
  9610     08A5  0800               	movf	0,w
  9611     08A6  1903               	btfsc	3,2
  9612     08A7  28A9               	goto	u1931
  9613     08A8  28AA               	goto	u1930
  9614     08A9                     u1931:
  9615     08A9  28C3               	goto	l2632
  9616     08AA                     u1930:
  9617     08AA                     l2626:
  9618     08AA  0873               	movf	strncmp@r,w
  9619     08AB  0084               	movwf	4
  9620     08AC  0800               	movf	0,w
  9621     08AD  1903               	btfsc	3,2
  9622     08AE  28B0               	goto	u1941
  9623     08AF  28B1               	goto	u1940
  9624     08B0                     u1941:
  9625     08B0  28C3               	goto	l2632
  9626     08B1                     u1940:
  9627     08B1                     l2628:
  9628     08B1  0874               	movf	strncmp@n,w
  9629     08B2  0475               	iorwf	strncmp@n+1,w
  9630     08B3  1903               	btfsc	3,2
  9631     08B4  28B6               	goto	u1951
  9632     08B5  28B7               	goto	u1950
  9633     08B6                     u1951:
  9634     08B6  28C3               	goto	l2632
  9635     08B7                     u1950:
  9636     08B7                     l2630:
  9637     08B7  0873               	movf	strncmp@r,w
  9638     08B8  0084               	movwf	4
  9639     08B9  0800               	movf	0,w
  9640     08BA  00F6               	movwf	??_strncmp
  9641     08BB  0872               	movf	strncmp@l,w
  9642     08BC  0084               	movwf	4
  9643     08BD  0800               	movf	0,w
  9644     08BE  0676               	xorwf	??_strncmp,w
  9645     08BF  1903               	skipnz
  9646     08C0  28C2               	goto	u1961
  9647     08C1  28C3               	goto	u1960
  9648     08C2                     u1961:
  9649     08C2  2898               	goto	l2620
  9650     08C3                     u1960:
  9651     08C3                     l2632:
  9652     08C3  0873               	movf	strncmp@r,w
  9653     08C4  0084               	movwf	4
  9654     08C5  0800               	movf	0,w
  9655     08C6  00F6               	movwf	??_strncmp
  9656     08C7  0872               	movf	strncmp@l,w
  9657     08C8  0084               	movwf	4
  9658     08C9  0800               	movf	0,w
  9659     08CA  00F7               	movwf	??_strncmp+1
  9660     08CB  0876               	movf	??_strncmp,w
  9661     08CC  0277               	subwf	??_strncmp+1,w
  9662     08CD  00F2               	movwf	?_strncmp
  9663     08CE  01F3               	clrf	?_strncmp+1
  9664     08CF  1C03               	skipc
  9665     08D0  03F3               	decf	?_strncmp+1,f
  9666     08D1                     l1141:
  9667     08D1  0008               	return
  9668     08D2                     __end_of_strncmp:
  9669                           
  9670                           	psect	text48
  9671     140A                     __ptext48:	
  9672 ;; *************** function _clear_screen *****************
  9673 ;; Defined at:
  9674 ;;		line 50 in file "bb.c"
  9675 ;; Parameters:    Size  Location     Type
  9676 ;;		None
  9677 ;; Auto vars:     Size  Location     Type
  9678 ;;		None
  9679 ;; Return value:  Size  Location     Type
  9680 ;;                  1    wreg      void 
  9681 ;; Registers used:
  9682 ;;		wreg, status,2, status,0, pclath, cstack
  9683 ;; Tracked objects:
  9684 ;;		On entry : 0/0
  9685 ;;		On exit  : 0/0
  9686 ;;		Unchanged: 0/0
  9687 ;; Data sizes:     COMMON   BANK0   BANK1   BANK3   BANK2
  9688 ;;      Params:         0       0       0       0       0
  9689 ;;      Locals:         0       0       0       0       0
  9690 ;;      Temps:          1       0       0       0       0
  9691 ;;      Totals:         1       0       0       0       0
  9692 ;;Total ram usage:        1 bytes
  9693 ;; Hardware stack levels used: 1
  9694 ;; Hardware stack levels required when called: 1
  9695 ;; This function calls:
  9696 ;;		_clcd_write
  9697 ;; This function is called by:
  9698 ;;		_main
  9699 ;;		_login
  9700 ;;		_login_menu
  9701 ;;		_change_passwd
  9702 ;;		_set_time
  9703 ;; This function uses a non-reentrant model
  9704 ;;
  9705                           
  9706     140A                     _clear_screen:	
  9707                           ;psect for function _clear_screen
  9708                           
  9709     140A                     l3596:	
  9710                           ;incstack = 0
  9711                           ; Regs used in _clear_screen: [wreg+status,2+status,0+pclath+cstack]
  9712                           
  9713                           
  9714                           ;bb.c: 52:     clcd_write(0x01, 0);
  9715     140A  01F2               	clrf	clcd_write@mode
  9716     140B  3001               	movlw	1
  9717     140C  160A  118A  24BE  160A  118A  	fcall	_clcd_write
  9718     1411                     l3598:
  9719                           
  9720                           ;bb.c: 53:    _delay((unsigned long)((100)*(20000000/4000000.0)));
  9721     1411  30A6               	movlw	166
  9722     1412  00F6               	movwf	??_clear_screen
  9723     1413                     u4137:
  9724     1413  0BF6               	decfsz	??_clear_screen,f
  9725     1414  2C13               	goto	u4137
  9726     1415  0000               	nop
  9727     1416                     l194:
  9728     1416  0008               	return
  9729     1417                     __end_of_clear_screen:
  9730                           
  9731                           	psect	text49
  9732     148C                     __ptext49:	
  9733 ;; *************** function _clcd_putch *****************
  9734 ;; Defined at:
  9735 ;;		line 51 in file "clcd.c"
  9736 ;; Parameters:    Size  Location     Type
  9737 ;;  data            1    wreg     const unsigned char 
  9738 ;;  addr            1    8[COMMON] unsigned char 
  9739 ;; Auto vars:     Size  Location     Type
  9740 ;;  data            1    4[BANK0 ] const unsigned char 
  9741 ;; Return value:  Size  Location     Type
  9742 ;;                  1    wreg      void 
  9743 ;; Registers used:
  9744 ;;		wreg, status,2, status,0, pclath, cstack
  9745 ;; Tracked objects:
  9746 ;;		On entry : 0/0
  9747 ;;		On exit  : 0/0
  9748 ;;		Unchanged: 0/0
  9749 ;; Data sizes:     COMMON   BANK0   BANK1   BANK3   BANK2
  9750 ;;      Params:         1       0       0       0       0
  9751 ;;      Locals:         0       1       0       0       0
  9752 ;;      Temps:          0       0       0       0       0
  9753 ;;      Totals:         1       1       0       0       0
  9754 ;;Total ram usage:        2 bytes
  9755 ;; Hardware stack levels used: 1
  9756 ;; Hardware stack levels required when called: 1
  9757 ;; This function calls:
  9758 ;;		_clcd_write
  9759 ;; This function is called by:
  9760 ;;		_display_time
  9761 ;;		_login
  9762 ;;		_login_menu
  9763 ;;		_view_log
  9764 ;;		_change_passwd
  9765 ;;		_set_time
  9766 ;; This function uses a non-reentrant model
  9767 ;;
  9768                           
  9769     148C                     _clcd_putch:	
  9770                           ;psect for function _clcd_putch
  9771                           
  9772                           
  9773                           ;incstack = 0
  9774                           ; Regs used in _clcd_putch: [wreg+status,2+status,0+pclath+cstack]
  9775                           ;clcd_putch@data stored from wreg
  9776     148C  1283               	bcf	3,5	;RP0=0, select bank0
  9777     148D  1303               	bcf	3,6	;RP1=0, select bank0
  9778     148E  00A4               	movwf	clcd_putch@data
  9779     148F                     l3472:
  9780                           
  9781                           ;clcd.c: 51: void clcd_putch(const char data, unsigned char addr);clcd.c: 52: {;clcd.c: 
      +                          53:     clcd_write(addr, 0);
  9782     148F  01F2               	clrf	clcd_write@mode
  9783     1490  0878               	movf	clcd_putch@addr,w
  9784     1491  160A  118A  24BE  160A  118A  	fcall	_clcd_write
  9785                           
  9786                           ;clcd.c: 54:     clcd_write(data, 1);
  9787     1496  01F2               	clrf	clcd_write@mode
  9788     1497  0AF2               	incf	clcd_write@mode,f
  9789     1498  1283               	bcf	3,5	;RP0=0, select bank0
  9790     1499  1303               	bcf	3,6	;RP1=0, select bank0
  9791     149A  0824               	movf	clcd_putch@data,w
  9792     149B  160A  118A  24BE  160A  118A  	fcall	_clcd_write
  9793     14A0                     l382:
  9794     14A0  0008               	return
  9795     14A1                     __end_of_clcd_putch:
  9796                           
  9797                           	psect	text50
  9798     1675                     __ptext50:	
  9799 ;; *************** function _clcd_print *****************
  9800 ;; Defined at:
  9801 ;;		line 57 in file "clcd.c"
  9802 ;; Parameters:    Size  Location     Type
  9803 ;;  str             2    0[BANK0 ] PTR const unsigned char 
  9804 ;;		 -> STR_42(21), STR_40(15), STR_38(3), STR_37(3), 
  9805 ;;		 -> STR_36(3), STR_35(17), STR_34(12), set_time@ss(3), 
  9806 ;;		 -> set_time@mm(3), set_time@hh(3), STR_33(20), STR_32(15), 
  9807 ;;		 -> STR_31(6), STR_30(14), STR_29(11), STR_28(15), 
  9808 ;;		 -> STR_27(16), STR_26(17), STR_25(17), STR_24(16), 
  9809 ;;		 -> STR_23(17), STR_22(18), STR_21(16), STR_20(17), 
  9810 ;;		 -> STR_19(17), STR_18(17), STR_17(16), STR_16(9), 
  9811 ;;		 -> STR_15(13), STR_14(15), STR_13(10), STR_12(9), 
  9812 ;;		 -> STR_9(17), event(3), potVal(4), 
  9813 ;;  addr            1    2[BANK0 ] unsigned char 
  9814 ;; Auto vars:     Size  Location     Type
  9815 ;;		None
  9816 ;; Return value:  Size  Location     Type
  9817 ;;                  1    wreg      void 
  9818 ;; Registers used:
  9819 ;;		wreg, fsr0l, fsr0h, status,2, status,0, pclath, btemp1, cstack
  9820 ;; Tracked objects:
  9821 ;;		On entry : 0/0
  9822 ;;		On exit  : 0/0
  9823 ;;		Unchanged: 0/0
  9824 ;; Data sizes:     COMMON   BANK0   BANK1   BANK3   BANK2
  9825 ;;      Params:         0       3       0       0       0
  9826 ;;      Locals:         0       0       0       0       0
  9827 ;;      Temps:          0       0       0       0       0
  9828 ;;      Totals:         0       3       0       0       0
  9829 ;;Total ram usage:        3 bytes
  9830 ;; Hardware stack levels used: 1
  9831 ;; Hardware stack levels required when called: 1
  9832 ;; This function calls:
  9833 ;;		_clcd_write
  9834 ;; This function is called by:
  9835 ;;		_main
  9836 ;;		_disp_dashboard
  9837 ;;		_login
  9838 ;;		_login_menu
  9839 ;;		_view_log
  9840 ;;		_change_passwd
  9841 ;;		_clear_logs
  9842 ;;		_set_time
  9843 ;;		_download_log
  9844 ;; This function uses a non-reentrant model
  9845 ;;
  9846                           
  9847     1675                     _clcd_print:	
  9848                           ;psect for function _clcd_print
  9849                           
  9850     1675                     l3600:	
  9851                           ;incstack = 0
  9852                           ; Regs used in _clcd_print: [wreg-fsr0h+status,2+status,0+pclath+btemp1+cstack]
  9853                           
  9854                           
  9855                           ;clcd.c: 57: void clcd_print(const char *str, unsigned char addr);clcd.c: 58: {;clcd.c: 
      +                          59:     clcd_write(addr, 0);
  9856     1675  01F2               	clrf	clcd_write@mode
  9857     1676  1283               	bcf	3,5	;RP0=0, select bank0
  9858     1677  1303               	bcf	3,6	;RP1=0, select bank0
  9859     1678  0822               	movf	clcd_print@addr,w
  9860     1679  160A  118A  24BE  160A  118A  	fcall	_clcd_write
  9861                           
  9862                           ;clcd.c: 61:     while (*str != '\0')
  9863     167E  2E97               	goto	l3606
  9864     167F                     l3602:
  9865                           
  9866                           ;clcd.c: 62:     {;clcd.c: 63:         clcd_write(*str, 1);
  9867     167F  01F2               	clrf	clcd_write@mode
  9868     1680  0AF2               	incf	clcd_write@mode,f
  9869     1681  0821               	movf	clcd_print@str+1,w
  9870     1682  00FF               	movwf	btemp1
  9871     1683  0820               	movf	clcd_print@str,w
  9872     1684  0084               	movwf	4
  9873     1685  120A  118A  27EE  160A  118A  	fcall	stringtab
  9874     168A  160A  118A  24BE  160A  118A  	fcall	_clcd_write
  9875     168F                     l3604:
  9876                           
  9877                           ;clcd.c: 64:         str++;
  9878     168F  3001               	movlw	1
  9879     1690  1283               	bcf	3,5	;RP0=0, select bank0
  9880     1691  1303               	bcf	3,6	;RP1=0, select bank0
  9881     1692  07A0               	addwf	clcd_print@str,f
  9882     1693  1803               	skipnc
  9883     1694  0AA1               	incf	clcd_print@str+1,f
  9884     1695  3000               	movlw	0
  9885     1696  07A1               	addwf	clcd_print@str+1,f
  9886     1697                     l3606:
  9887                           
  9888                           ;clcd.c: 61:     while (*str != '\0')
  9889     1697  1283               	bcf	3,5	;RP0=0, select bank0
  9890     1698  1303               	bcf	3,6	;RP1=0, select bank0
  9891     1699  0821               	movf	clcd_print@str+1,w
  9892     169A  00FF               	movwf	btemp1
  9893     169B  0820               	movf	clcd_print@str,w
  9894     169C  0084               	movwf	4
  9895     169D  120A  118A  27EE  160A  118A  	fcall	stringtab
  9896     16A2  3A00               	xorlw	0
  9897     16A3  1D03               	skipz
  9898     16A4  2EA6               	goto	u3181
  9899     16A5  2EA7               	goto	u3180
  9900     16A6                     u3181:
  9901     16A6  2E7F               	goto	l3602
  9902     16A7                     u3180:
  9903     16A7                     l388:
  9904     16A7  0008               	return
  9905     16A8                     __end_of_clcd_print:
  9906                           
  9907                           	psect	text51
  9908     14BE                     __ptext51:	
  9909 ;; *************** function _clcd_write *****************
  9910 ;; Defined at:
  9911 ;;		line 4 in file "clcd.c"
  9912 ;; Parameters:    Size  Location     Type
  9913 ;;  byte            1    wreg     unsigned char 
  9914 ;;  mode            1    2[COMMON] unsigned char 
  9915 ;; Auto vars:     Size  Location     Type
  9916 ;;  byte            1    5[COMMON] unsigned char 
  9917 ;; Return value:  Size  Location     Type
  9918 ;;                  1    wreg      void 
  9919 ;; Registers used:
  9920 ;;		wreg
  9921 ;; Tracked objects:
  9922 ;;		On entry : 0/0
  9923 ;;		On exit  : 0/0
  9924 ;;		Unchanged: 0/0
  9925 ;; Data sizes:     COMMON   BANK0   BANK1   BANK3   BANK2
  9926 ;;      Params:         1       0       0       0       0
  9927 ;;      Locals:         1       0       0       0       0
  9928 ;;      Temps:          2       0       0       0       0
  9929 ;;      Totals:         4       0       0       0       0
  9930 ;;Total ram usage:        4 bytes
  9931 ;; Hardware stack levels used: 1
  9932 ;; Hardware stack levels required when called: 1
  9933 ;; This function calls:
  9934 ;;		Nothing
  9935 ;; This function is called by:
  9936 ;;		_main
  9937 ;;		_clear_screen
  9938 ;;		_login
  9939 ;;		_change_passwd
  9940 ;;		_init_display_controller
  9941 ;;		_clcd_putch
  9942 ;;		_clcd_print
  9943 ;; This function uses a non-reentrant model
  9944 ;;
  9945                           
  9946     14BE                     _clcd_write:	
  9947                           ;psect for function _clcd_write
  9948                           
  9949                           
  9950                           ;incstack = 0
  9951                           ; Regs used in _clcd_write: [wreg]
  9952                           ;clcd_write@byte stored from wreg
  9953     14BE  00F5               	movwf	clcd_write@byte
  9954     14BF                     l3464:
  9955                           
  9956                           ;clcd.c: 4: void clcd_write(unsigned char byte, unsigned char mode);clcd.c: 5: {;clcd.c:
      +                           6:     RE2 = (__bit)mode;
  9957     14BF  1872               	btfsc	clcd_write@mode,0
  9958     14C0  2CC2               	goto	u2971
  9959     14C1  2CC6               	goto	u2970
  9960     14C2                     u2971:
  9961     14C2  1283               	bcf	3,5	;RP0=0, select bank0
  9962     14C3  1303               	bcf	3,6	;RP1=0, select bank0
  9963     14C4  1509               	bsf	9,2	;volatile
  9964     14C5  2CC9               	goto	u2984
  9965     14C6                     u2970:
  9966     14C6  1283               	bcf	3,5	;RP0=0, select bank0
  9967     14C7  1303               	bcf	3,6	;RP1=0, select bank0
  9968     14C8  1109               	bcf	9,2	;volatile
  9969     14C9                     u2984:
  9970     14C9                     l3466:
  9971                           
  9972                           ;clcd.c: 7:     PORTD = byte;
  9973     14C9  0875               	movf	clcd_write@byte,w
  9974     14CA  0088               	movwf	8	;volatile
  9975     14CB                     l3468:
  9976                           
  9977                           ;clcd.c: 9:     RE1 = 1;
  9978     14CB  1489               	bsf	9,1	;volatile
  9979                           
  9980                           ;clcd.c: 10:     _delay((unsigned long)((100)*(20000000/4000000.0)));
  9981     14CC  30A6               	movlw	166
  9982     14CD  00F3               	movwf	??_clcd_write
  9983     14CE                     u4147:
  9984     14CE  0BF3               	decfsz	??_clcd_write,f
  9985     14CF  2CCE               	goto	u4147
  9986     14D0  0000               	nop
  9987     14D1                     l3470:
  9988                           
  9989                           ;clcd.c: 11:     RE1 = 0;
  9990     14D1  1283               	bcf	3,5	;RP0=0, select bank0
  9991     14D2  1303               	bcf	3,6	;RP1=0, select bank0
  9992     14D3  1089               	bcf	9,1	;volatile
  9993                           
  9994                           ;clcd.c: 13:     _delay((unsigned long)((4100)*(20000000/4000000.0)));
  9995     14D4  301B               	movlw	27
  9996     14D5  00F4               	movwf	??_clcd_write+1
  9997     14D6  309E               	movlw	158
  9998     14D7  00F3               	movwf	??_clcd_write
  9999     14D8                     u4157:
 10000     14D8  0BF3               	decfsz	??_clcd_write,f
 10001     14D9  2CD8               	goto	u4157
 10002     14DA  0BF4               	decfsz	??_clcd_write+1,f
 10003     14DB  2CD8               	goto	u4157
 10004     14DC  0000               	nop
 10005     14DD                     l373:
 10006     14DD  0008               	return
 10007     14DE                     __end_of_clcd_write:
 10008                           
 10009                           	psect	text52
 10010     0AE6                     __ptext52:	
 10011 ;; *************** function _isr *****************
 10012 ;; Defined at:
 10013 ;;		line 8 in file "isr.c"
 10014 ;; Parameters:    Size  Location     Type
 10015 ;;		None
 10016 ;; Auto vars:     Size  Location     Type
 10017 ;;		None
 10018 ;; Return value:  Size  Location     Type
 10019 ;;                  1    wreg      void 
 10020 ;; Registers used:
 10021 ;;		wreg, status,2, status,0
 10022 ;; Tracked objects:
 10023 ;;		On entry : 0/0
 10024 ;;		On exit  : 0/0
 10025 ;;		Unchanged: 0/0
 10026 ;; Data sizes:     COMMON   BANK0   BANK1   BANK3   BANK2
 10027 ;;      Params:         0       0       0       0       0
 10028 ;;      Locals:         0       0       0       0       0
 10029 ;;      Temps:          2       0       0       0       0
 10030 ;;      Totals:         2       0       0       0       0
 10031 ;;Total ram usage:        2 bytes
 10032 ;; Hardware stack levels used: 1
 10033 ;; This function calls:
 10034 ;;		Nothing
 10035 ;; This function is called by:
 10036 ;;		Interrupt level 1
 10037 ;; This function uses a non-reentrant model
 10038 ;;
 10039                           
 10040     0AE6                     _isr:	
 10041                           ;psect for function _isr
 10042                           
 10043     0AE6                     i1l3434:
 10044                           
 10045                           ;isr.c: 10:     static unsigned counter=0,blinker=0;;isr.c: 12:     if (TMR0IF == 1)
 10046     0AE6  1D0B               	btfss	11,2	;volatile
 10047     0AE7  2AE9               	goto	u288_21
 10048     0AE8  2AEA               	goto	u288_20
 10049     0AE9                     u288_21:
 10050     0AE9  2B4D               	goto	i1l521
 10051     0AEA                     u288_20:
 10052     0AEA                     i1l3436:
 10053                           
 10054                           ;isr.c: 13:     {;isr.c: 14:         TMR0 = TMR0 + 8;
 10055     0AEA  1283               	bcf	3,5	;RP0=0, select bank0
 10056     0AEB  1303               	bcf	3,6	;RP1=0, select bank0
 10057     0AEC  0801               	movf	1,w	;volatile
 10058     0AED  3E08               	addlw	8
 10059     0AEE  0081               	movwf	1	;volatile
 10060                           
 10061                           ;isr.c: 16:         if(hold++==30000){
 10062     0AEF  3001               	movlw	1
 10063     0AF0  07F9               	addwf	_hold,f	;volatile
 10064     0AF1  1803               	skipnc
 10065     0AF2  0AFA               	incf	_hold+1,f	;volatile
 10066     0AF3  3000               	movlw	0
 10067     0AF4  07FA               	addwf	_hold+1,f	;volatile
 10068     0AF5  3031               	movlw	49
 10069     0AF6  0679               	xorwf	_hold,w	;volatile
 10070     0AF7  3075               	movlw	117
 10071     0AF8  1903               	skipnz
 10072     0AF9  067A               	xorwf	_hold+1,w	;volatile
 10073     0AFA  1D03               	btfss	3,2
 10074     0AFB  2AFD               	goto	u289_21
 10075     0AFC  2AFE               	goto	u289_20
 10076     0AFD                     u289_21:
 10077     0AFD  2B06               	goto	i1l3442
 10078     0AFE                     u289_20:
 10079     0AFE                     i1l3438:
 10080                           
 10081                           ;isr.c: 17:             reset=1;
 10082     0AFE  3001               	movlw	1
 10083     0AFF  1683               	bsf	3,5	;RP0=1, select bank1
 10084     0B00  1303               	bcf	3,6	;RP1=0, select bank1
 10085     0B01  00BD               	movwf	_reset^(0+128)
 10086     0B02  3000               	movlw	0
 10087     0B03  00BE               	movwf	(_reset^(0+128)+1)
 10088     0B04                     i1l3440:
 10089                           
 10090                           ;isr.c: 18:             hold=0;
 10091     0B04  01F9               	clrf	_hold	;volatile
 10092     0B05  01FA               	clrf	_hold+1	;volatile
 10093     0B06                     i1l3442:
 10094                           
 10095                           ;isr.c: 26:         if(++blinker==10000){
 10096     0B06  3001               	movlw	1
 10097     0B07  1683               	bsf	3,5	;RP0=1, select bank1
 10098     0B08  1303               	bcf	3,6	;RP1=0, select bank1
 10099     0B09  07AB               	addwf	isr@blinker^(0+128),f
 10100     0B0A  1803               	skipnc
 10101     0B0B  0AAC               	incf	(isr@blinker+1)^(0+128),f
 10102     0B0C  3000               	movlw	0
 10103     0B0D  07AC               	addwf	(isr@blinker+1)^(0+128),f
 10104     0B0E  3010               	movlw	16
 10105     0B0F  062B               	xorwf	isr@blinker^(0+128),w
 10106     0B10  3027               	movlw	39
 10107     0B11  1903               	skipnz
 10108     0B12  062C               	xorwf	(isr@blinker+1)^(0+128),w
 10109     0B13  1D03               	btfss	3,2
 10110     0B14  2B16               	goto	u290_21
 10111     0B15  2B17               	goto	u290_20
 10112     0B16                     u290_21:
 10113     0B16  2B25               	goto	i1l3448
 10114     0B17                     u290_20:
 10115     0B17                     i1l3444:
 10116                           
 10117                           ;isr.c: 27:         blink=!blink;
 10118     0B17  1283               	bcf	3,5	;RP0=0, select bank0
 10119     0B18  1303               	bcf	3,6	;RP1=0, select bank0
 10120     0B19  0858               	movf	_blink,w	;volatile
 10121     0B1A  1903               	btfsc	3,2
 10122     0B1B  2B1D               	goto	u291_21
 10123     0B1C  2B1F               	goto	u291_20
 10124     0B1D                     u291_21:
 10125     0B1D  3001               	movlw	1
 10126     0B1E  2B20               	goto	u292_20
 10127     0B1F                     u291_20:
 10128     0B1F  3000               	movlw	0
 10129     0B20                     u292_20:
 10130     0B20  00D8               	movwf	_blink	;volatile
 10131     0B21                     i1l3446:
 10132                           
 10133                           ;isr.c: 28:         blinker=0;
 10134     0B21  1683               	bsf	3,5	;RP0=1, select bank1
 10135     0B22  1303               	bcf	3,6	;RP1=0, select bank1
 10136     0B23  01AB               	clrf	isr@blinker^(0+128)
 10137     0B24  01AC               	clrf	(isr@blinker+1)^(0+128)
 10138     0B25                     i1l3448:
 10139                           
 10140                           ;isr.c: 34:         if(++counter==20000){
 10141     0B25  3001               	movlw	1
 10142     0B26  07AD               	addwf	isr@counter^(0+128),f
 10143     0B27  1803               	skipnc
 10144     0B28  0AAE               	incf	(isr@counter+1)^(0+128),f
 10145     0B29  3000               	movlw	0
 10146     0B2A  07AE               	addwf	(isr@counter+1)^(0+128),f
 10147     0B2B  3020               	movlw	32
 10148     0B2C  062D               	xorwf	isr@counter^(0+128),w
 10149     0B2D  304E               	movlw	78
 10150     0B2E  1903               	skipnz
 10151     0B2F  062E               	xorwf	(isr@counter+1)^(0+128),w
 10152     0B30  1D03               	btfss	3,2
 10153     0B31  2B33               	goto	u293_21
 10154     0B32  2B34               	goto	u293_20
 10155     0B33                     u293_21:
 10156     0B33  2B4C               	goto	i1l3462
 10157     0B34                     u293_20:
 10158     0B34                     i1l3450:
 10159                           
 10160                           ;isr.c: 38:             counter=0;
 10161     0B34  01AD               	clrf	isr@counter^(0+128)
 10162     0B35  01AE               	clrf	(isr@counter+1)^(0+128)
 10163     0B36                     i1l3452:
 10164                           
 10165                           ;isr.c: 39:             if(sec>0){
 10166     0B36  1283               	bcf	3,5	;RP0=0, select bank0
 10167     0B37  1303               	bcf	3,6	;RP1=0, select bank0
 10168     0B38  0859               	movf	_sec,w
 10169     0B39  1903               	btfsc	3,2
 10170     0B3A  2B3C               	goto	u294_21
 10171     0B3B  2B3D               	goto	u294_20
 10172     0B3C                     u294_21:
 10173     0B3C  2B40               	goto	i1l3456
 10174     0B3D                     u294_20:
 10175     0B3D                     i1l3454:
 10176                           
 10177                           ;isr.c: 40:                 sec--;
 10178     0B3D  3001               	movlw	1
 10179     0B3E  02D9               	subwf	_sec,f
 10180                           
 10181                           ;isr.c: 41:             }
 10182     0B3F  2B4C               	goto	i1l3462
 10183     0B40                     i1l3456:
 10184     0B40  0859               	movf	_sec,w
 10185     0B41  1D03               	btfss	3,2
 10186     0B42  2B44               	goto	u295_21
 10187     0B43  2B45               	goto	u295_20
 10188     0B44                     u295_21:
 10189     0B44  2B4C               	goto	i1l3462
 10190     0B45                     u295_20:
 10191     0B45                     i1l3458:
 10192     0B45  085A               	movf	_return_time,w
 10193     0B46  1903               	btfsc	3,2
 10194     0B47  2B49               	goto	u296_21
 10195     0B48  2B4A               	goto	u296_20
 10196     0B49                     u296_21:
 10197     0B49  2B4C               	goto	i1l3462
 10198     0B4A                     u296_20:
 10199     0B4A                     i1l3460:
 10200                           
 10201                           ;isr.c: 44:             return_time--;
 10202     0B4A  3001               	movlw	1
 10203     0B4B  02DA               	subwf	_return_time,f
 10204     0B4C                     i1l3462:
 10205                           
 10206                           ;isr.c: 51:         TMR0IF = 0;
 10207     0B4C  110B               	bcf	11,2	;volatile
 10208     0B4D                     i1l521:
 10209     0B4D  0871               	movf	??_isr+1,w
 10210     0B4E  008A               	movwf	10
 10211     0B4F  0E70               	swapf	??_isr,w
 10212     0B50  0083               	movwf	3
 10213     0B51  0EFE               	swapf	btemp,f
 10214     0B52  0E7E               	swapf	btemp,w
 10215     0B53  0009               	retfie
 10216     0B54                     __end_of_isr:
 10217     0002                     ___latbits      equ	2
 10218     007E                     btemp           set	126	;btemp
 10219     007E                     btemp0          set	126
 10220     007F                     btemp1          set	127
 10221     007E                     wtemp0          set	126
 10222     007F                     wtemp0a         set	127
 10223     007F                     ttemp0a         set	127
 10224     0080                     ltemp0a         set	128
 10225                           
 10226                           	psect	intentry
 10227     0004                     __pintentry:	
 10228                           ;incstack = 0
 10229                           ; Regs used in _isr: [wreg+status,2+status,0]
 10230                           
 10231     0004                     interrupt_function:
 10232     007E                     saved_w         set	btemp
 10233     0004  00FE               	movwf	btemp
 10234     0005  0E03               	swapf	3,w
 10235     0006  00F0               	movwf	??_isr
 10236     0007  080A               	movf	10,w
 10237     0008  00F1               	movwf	??_isr+1
 10238     0009  120A  158A  2AE6   	ljmp	_isr
 10239                           
 10240                           	psect	config
 10241                           
 10242                           ;Config register CONFIG @ 0x2007
 10243                           ;	Oscillator Selection bits
 10244                           ;	FOSC = 0x3, unprogrammed default
 10245                           ;	Watchdog Timer Enable bit
 10246                           ;	WDTE = OFF, WDT disabled
 10247                           ;	Power-up Timer Enable bit
 10248                           ;	PWRTE = 0x1, unprogrammed default
 10249                           ;	Brown-out Reset Enable bit
 10250                           ;	BOREN = 0x1, unprogrammed default
 10251                           ;	Low-Voltage (Single-Supply) In-Circuit Serial Programming Enable bit
 10252                           ;	LVP = 0x1, unprogrammed default
 10253                           ;	Data EEPROM Memory Code Protection bit
 10254                           ;	CPD = 0x1, unprogrammed default
 10255                           ;	Flash Program Memory Write Enable bits
 10256                           ;	WRT = 0x3, unprogrammed default
 10257                           ;	In-Circuit Debugger Mode bit
 10258                           ;	DEBUG = 0x1, unprogrammed default
 10259                           ;	Flash Program Memory Code Protection bit
 10260                           ;	CP = 0x1, unprogrammed default
 10261     2007                     	org	8199
 10262     2007  3FFB               	dw	16379

Data Sizes:
    Strings     424
    Constant    0
    Data        33
    BSS         91
    Persistent  0
    Stack       0

Auto Spaces:
    Space          Size  Autos    Used
    COMMON           14      9      12
    BANK0            80     41      79
    BANK1            80      0      71
    BANK3            96      0      12
    BANK2            96      0       0

Pointer List with Targets:

    clcd_print@str	PTR const unsigned char  size(2) Largest target is 21
		 -> event(BANK0[3]), potVal(BANK0[4]), set_time@hh(BANK0[3]), set_time@mm(BANK0[3]), 
		 -> set_time@ss(BANK0[3]), STR_12(CODE[9]), STR_13(CODE[10]), STR_14(CODE[15]), 
		 -> STR_15(CODE[13]), STR_16(CODE[9]), STR_17(CODE[16]), STR_18(CODE[17]), 
		 -> STR_19(CODE[17]), STR_20(CODE[17]), STR_21(CODE[16]), STR_22(CODE[18]), 
		 -> STR_23(CODE[17]), STR_24(CODE[16]), STR_25(CODE[17]), STR_26(CODE[17]), 
		 -> STR_27(CODE[16]), STR_28(CODE[15]), STR_29(CODE[11]), STR_30(CODE[14]), 
		 -> STR_31(CODE[6]), STR_32(CODE[15]), STR_33(CODE[20]), STR_34(CODE[12]), 
		 -> STR_35(CODE[17]), STR_36(CODE[3]), STR_37(CODE[3]), STR_38(CODE[3]), 
		 -> STR_40(CODE[15]), STR_42(CODE[21]), STR_9(CODE[17]), 

    disp_dashboard@event	PTR unsigned char  size(1) Largest target is 3
		 -> event(BANK0[3]), 

    ext_eeprom_store_str@str	PTR unsigned char  size(1) Largest target is 11
		 -> log(BANK1[11]), 

    gear	PTR unsigned char [6] size(2) Largest target is 3
		 -> STR_1(CODE[3]), STR_2(CODE[3]), STR_3(CODE[3]), STR_4(CODE[3]), 
		 -> STR_5(CODE[3]), STR_6(CODE[3]), 

    log_car_event@event	PTR unsigned char  size(2) Largest target is 3
		 -> event(BANK0[3]), STR_10(CODE[3]), STR_11(CODE[3]), 

    log_car_event@speed	PTR unsigned char  size(1) Largest target is 4
		 -> potVal(BANK0[4]), 

    menu	PTR unsigned char [5] size(2) Largest target is 15
		 -> STR_12(CODE[9]), STR_13(CODE[10]), STR_14(CODE[15]), STR_15(CODE[13]), 
		 -> STR_16(CODE[9]), 

    puts@s	PTR const unsigned char  size(2) Largest target is 22
		 -> download_log@logData(BANK0[11]), STR_39(CODE[2]), STR_41(CODE[22]), STR_7(CODE[17]), 

    sp__strcpy	PTR unsigned char  size(1) Largest target is 3
		 -> event(BANK0[3]), 

    sp__strncpy	PTR unsigned char  size(1) Largest target is 11
		 -> log(BANK1[11]), set_time@hh(BANK0[3]), set_time@mm(BANK0[3]), set_time@ss(BANK0[3]), 

    strcmp@l	PTR const unsigned char  size(1) Largest target is 5
		 -> login@uPass(BANK1[5]), 

    strcmp@r	PTR const unsigned char  size(1) Largest target is 5
		 -> pass(BANK1[5]), 

    strcpy@d	PTR unsigned char  size(1) Largest target is 3
		 -> event(BANK0[3]), 

    strcpy@dest	PTR unsigned char  size(1) Largest target is 3
		 -> event(BANK0[3]), 

    strcpy@src	PTR const unsigned char  size(2) Largest target is 3
		 -> STR_1(CODE[3]), STR_2(CODE[3]), STR_3(CODE[3]), STR_4(CODE[3]), 
		 -> STR_5(CODE[3]), STR_6(CODE[3]), STR_8(CODE[3]), 

    strncmp@l	PTR const unsigned char  size(1) Largest target is 9
		 -> change_passwd@upass(BANK1[9]), 

    strncmp@r	PTR const unsigned char  size(1) Largest target is 9
		 -> change_passwd@upass(BANK1[9]), 

    strncpy@cp	PTR unsigned char  size(1) Largest target is 11
		 -> log(BANK1[11]), set_time@hh(BANK0[3]), set_time@mm(BANK0[3]), set_time@ss(BANK0[3]), 

    strncpy@d	PTR unsigned char  size(1) Largest target is 11
		 -> log(BANK1[11]), set_time@hh(BANK0[3]), set_time@mm(BANK0[3]), set_time@ss(BANK0[3]), 

    strncpy@s	PTR const unsigned char  size(2) Largest target is 7
		 -> event(BANK0[3]), potVal(BANK0[4]), STR_10(CODE[3]), STR_11(CODE[3]), 
		 -> time(BANK0[7]), 


Critical Paths under _main in COMMON

    _main->_clear_logs
    _view_log->_clcd_putch
    _set_time->_clcd_putch
    _set_time->_dec_to_bcd
    _set_time->_strncpy
    _dec_to_bcd->___awmod
    _login_menu->_clcd_putch
    _login->_clcd_putch
    _log_car_event->_strncpy
    _getPotVal->___awmod
    _getPotVal->___lldiv
    _display_time->_clcd_putch
    _puts->_putchar
    _init_uart->___lldiv
    _init_i2c->___lldiv
    _i2c_write->_dec_to_bcd
    _init_clcd->_init_display_controller
    _init_display_controller->_clcd_write
    _change_passwd->_clcd_putch
    _clear_screen->_clcd_write
    _clcd_putch->___awmod
    _clcd_print->_clcd_write

Critical Paths under _isr in COMMON

    None.

Critical Paths under _main in BANK0

    _main->_set_time
    _view_log->_read_external_eeprom
    _set_time->_i2c_write
    _dec_to_bcd->___awdiv
    _login_menu->_clcd_putch
    _login->_clcd_putch
    _log_car_event->_ext_eeprom_store_str
    _ext_eeprom_store_str->_write_external_eeprom
    _write_external_eeprom->_i2c_write
    _download_log->_read_external_eeprom
    _read_external_eeprom->_i2c_write
    _disp_dashboard->_getPotVal
    _getPotVal->___lldiv
    _getPotVal->___lmul
    _display_time->_get_time
    _get_time->_read_ds1307
    _config->_init_i2c
    _config->_init_uart
    _init_uart->___lldiv
    _init_i2c->___lldiv
    _init_ds1307->_read_ds1307
    _init_ds1307->_write_ds1307
    _write_ds1307->_i2c_write
    _read_ds1307->_i2c_write
    _i2c_write->_dec_to_bcd
    _clear_logs->_clcd_print
    _change_passwd->_clcd_putch
    _clcd_putch->___awdiv

Critical Paths under _isr in BANK0

    None.

Critical Paths under _main in BANK1

    None.

Critical Paths under _isr in BANK1

    None.

Critical Paths under _main in BANK3

    None.

Critical Paths under _isr in BANK3

    None.

Critical Paths under _main in BANK2

    None.

Critical Paths under _isr in BANK2

    None.

Call Graph Tables:

 ---------------------------------------------------------------------------------
 (Depth) Function   	        Calls       Base Space   Used Autos Params    Refs
 ---------------------------------------------------------------------------------
 (0) _main                                                 9     9      0   17491
                                             32 BANK0      9     9      0
                      _change_passwd
                         _clcd_print
                         _clcd_write
                         _clear_logs
                       _clear_screen
                             _config
                     _disp_dashboard
                       _download_log
                      _log_car_event
                              _login
                         _login_menu
                _read_digital_keypad
                           _set_time
                             _strcpy
                           _view_log
 ---------------------------------------------------------------------------------
 (1) _view_log                                             4     4      0    1260
                                             14 BANK0      4     4      0
                             ___bmul
                         _clcd_print
                         _clcd_putch
               _read_external_eeprom
 ---------------------------------------------------------------------------------
 (2) _strcpy                                               6     3      3      79
                                              2 COMMON     6     3      3
 ---------------------------------------------------------------------------------
 (1) _set_time                                            20    20      0    4665
                                             12 BANK0     20    20      0
                            ___awdiv
                            ___awmod
                             ___wmul
                         _clcd_print
                         _clcd_putch
                       _clear_screen
                         _dec_to_bcd
                          _i2c_start
                           _i2c_stop
                          _i2c_write
                            _strncpy
 ---------------------------------------------------------------------------------
 (2) _dec_to_bcd                                           8     8      0    1036
                                              8 COMMON     1     1      0
                                              4 BANK0      7     7      0
                            ___awdiv
                            ___awmod
 ---------------------------------------------------------------------------------
 (2) ___wmul                                               6     2      4      98
                                              2 COMMON     6     2      4
 ---------------------------------------------------------------------------------
 (1) _read_digital_keypad                                  2     2      0      29
                                              2 COMMON     2     2      0
 ---------------------------------------------------------------------------------
 (1) _login_menu                                           7     7      0    1071
                                              5 BANK0      7     7      0
                         _clcd_print
                         _clcd_putch
                       _clear_screen
 ---------------------------------------------------------------------------------
 (1) _login                                                7     6      1    2308
                                              5 BANK0      7     6      1
                            ___awdiv
                            ___awmod
                         _clcd_print
                         _clcd_putch
                         _clcd_write
                       _clear_screen
                             _strcmp
 ---------------------------------------------------------------------------------
 (2) _strcmp                                               4     2      2     114
                                              2 COMMON     4     2      2
 ---------------------------------------------------------------------------------
 (1) _log_car_event                                        4     1      3     809
                                             18 BANK0      4     1      3
                             ___bmul
               _ext_eeprom_store_str
                           _get_time
                            _strncpy
 ---------------------------------------------------------------------------------
 (3) _strncpy                                              8     3      5     256
                                              2 COMMON     7     2      5
                                              0 BANK0      1     1      0
 ---------------------------------------------------------------------------------
 (2) _ext_eeprom_store_str                                 2     1      1     181
                                             16 BANK0      2     1      1
              _write_external_eeprom
 ---------------------------------------------------------------------------------
 (3) _write_external_eeprom                                4     3      1     104
                                             12 BANK0      4     3      1
                          _i2c_start
                           _i2c_stop
                          _i2c_write
 ---------------------------------------------------------------------------------
 (1) _download_log                                        14    14      0    1003
                                             14 BANK0     14    14      0
                             ___bmul
                         _clcd_print
                               _puts
               _read_external_eeprom
 ---------------------------------------------------------------------------------
 (2) _read_external_eeprom                                 2     2      0     133
                                             12 BANK0      2     2      0
                             ___bmul (ARG)
                           _i2c_read
                      _i2c_rep_start
                          _i2c_start
                           _i2c_stop
                          _i2c_write
 ---------------------------------------------------------------------------------
 (2) ___bmul                                               3     2      1     110
                                              2 COMMON     3     2      1
 ---------------------------------------------------------------------------------
 (1) _disp_dashboard                                       1     0      1    2249
                                             15 BANK0      1     0      1
                         _clcd_print
                       _display_time
                          _getPotVal
 ---------------------------------------------------------------------------------
 (2) _getPotVal                                            7     7      0    1326
                                              8 BANK0      7     7      0
                            ___awdiv
                            ___awmod
                            ___lldiv
                             ___lmul
                           _read_adc
 ---------------------------------------------------------------------------------
 (3) _read_adc                                             4     2      2      23
                                              2 COMMON     4     2      2
 ---------------------------------------------------------------------------------
 (3) ___lmul                                              13     5      8      94
                                              2 COMMON     5     5      0
                                              0 BANK0      8     0      8
 ---------------------------------------------------------------------------------
 (3) ___awmod                                              6     2      4     465
                                              2 COMMON     6     2      4
 ---------------------------------------------------------------------------------
 (3) ___awdiv                                              8     4      4     477
                                              2 COMMON     4     0      4
                                              0 BANK0      4     4      0
 ---------------------------------------------------------------------------------
 (2) _display_time                                         0     0      0     454
                         _clcd_putch
                           _get_time
 ---------------------------------------------------------------------------------
 (3) _get_time                                             1     1      0     133
                                             14 BANK0      1     1      0
                        _read_ds1307
 ---------------------------------------------------------------------------------
 (1) _config                                               0     0      0     845
                           _init_adc
                          _init_clcd
                _init_digital_keypad
                        _init_ds1307
                           _init_i2c
                        _init_timer0
                          _init_uart
                               _puts
 ---------------------------------------------------------------------------------
 (2) _puts                                                 2     0      2      78
                                              3 COMMON     2     0      2
                            _putchar
 ---------------------------------------------------------------------------------
 (3) _putchar                                              1     1      0      29
                                              2 COMMON     1     1      0
 ---------------------------------------------------------------------------------
 (2) _init_uart                                            8     4      4     191
                                              8 BANK0      8     4      4
                            ___lldiv
 ---------------------------------------------------------------------------------
 (2) _init_timer0                                          0     0      0       0
 ---------------------------------------------------------------------------------
 (2) _init_i2c                                             8     4      4     191
                                              8 BANK0      8     4      4
                            ___lldiv
 ---------------------------------------------------------------------------------
 (3) ___lldiv                                             14     6      8     168
                                              2 COMMON     6     6      0
                                              0 BANK0      8     0      8
 ---------------------------------------------------------------------------------
 (2) _init_ds1307                                          1     1      0     238
                                             14 BANK0      1     1      0
                        _read_ds1307
                       _write_ds1307
 ---------------------------------------------------------------------------------
 (3) _write_ds1307                                         2     1      1      81
                                             12 BANK0      2     1      1
                          _i2c_start
                           _i2c_stop
                          _i2c_write
 ---------------------------------------------------------------------------------
 (4) _read_ds1307                                          2     2      0     133
                                             12 BANK0      2     2      0
                           _i2c_read
                      _i2c_rep_start
                          _i2c_start
                           _i2c_stop
                          _i2c_write
 ---------------------------------------------------------------------------------
 (5) _i2c_write                                            1     1      0      29
                                             11 BANK0      1     1      0
                         _dec_to_bcd (ARG)
                  _i2c_wait_for_idle
 ---------------------------------------------------------------------------------
 (5) _i2c_rep_start                                        0     0      0       0
                          _i2c_start
                           _i2c_stop
 ---------------------------------------------------------------------------------
 (6) _i2c_stop                                             0     0      0       0
                  _i2c_wait_for_idle
 ---------------------------------------------------------------------------------
 (6) _i2c_start                                            0     0      0       0
                  _i2c_wait_for_idle
 ---------------------------------------------------------------------------------
 (5) _i2c_read                                             2     2      0      52
                                              2 COMMON     2     2      0
                  _i2c_wait_for_idle
 ---------------------------------------------------------------------------------
 (7) _i2c_wait_for_idle                                    0     0      0       0
 ---------------------------------------------------------------------------------
 (2) _init_digital_keypad                                  0     0      0       0
 ---------------------------------------------------------------------------------
 (2) _init_clcd                                            0     0      0     147
            _init_display_controller
 ---------------------------------------------------------------------------------
 (3) _init_display_controller                              2     2      0     147
                                              6 COMMON     2     2      0
                         _clcd_write
 ---------------------------------------------------------------------------------
 (2) _init_adc                                             0     0      0       0
 ---------------------------------------------------------------------------------
 (1) _clear_logs                                           3     3      0     435
                                              6 COMMON     3     3      0
                         _clcd_print
 ---------------------------------------------------------------------------------
 (1) _change_passwd                                        4     4      0    1326
                                              5 BANK0      4     4      0
                         _clcd_print
                         _clcd_putch
                         _clcd_write
                       _clear_screen
                            _strncmp
 ---------------------------------------------------------------------------------
 (2) _strncmp                                              6     2      4     182
                                              2 COMMON     6     2      4
 ---------------------------------------------------------------------------------
 (2) _clear_screen                                         1     1      0     147
                                              6 COMMON     1     1      0
                         _clcd_write
 ---------------------------------------------------------------------------------
 (3) _clcd_putch                                           2     1      1     321
                                              8 COMMON     1     0      1
                                              4 BANK0      1     1      0
                            ___awdiv (ARG)
                            ___awmod (ARG)
                         _clcd_write
 ---------------------------------------------------------------------------------
 (2) _clcd_print                                           3     0      3     435
                                              0 BANK0      3     0      3
                         _clcd_write
 ---------------------------------------------------------------------------------
 (4) _clcd_write                                           4     3      1     147
                                              2 COMMON     4     3      1
 ---------------------------------------------------------------------------------
 Estimated maximum stack depth 7
 ---------------------------------------------------------------------------------
 (Depth) Function   	        Calls       Base Space   Used Autos Params    Refs
 ---------------------------------------------------------------------------------
 (8) _isr                                                  2     2      0       0
                                              0 COMMON     2     2      0
 ---------------------------------------------------------------------------------
 Estimated maximum stack depth 8
 ---------------------------------------------------------------------------------

 Call Graph Graphs:

 _main (ROOT)
   _change_passwd
     _clcd_print
       _clcd_write
     _clcd_putch
       ___awdiv (ARG)
       ___awmod (ARG)
       _clcd_write (ARG)
     _clcd_write
     _clear_screen
       _clcd_write
     _strncmp
   _clcd_print
   _clcd_write
   _clear_logs
     _clcd_print
   _clear_screen
   _config
     _init_adc
     _init_clcd
       _init_display_controller
         _clcd_write
     _init_digital_keypad
     _init_ds1307
       _read_ds1307
         _i2c_read
           _i2c_wait_for_idle
         _i2c_rep_start
           _i2c_start
             _i2c_wait_for_idle
           _i2c_stop
             _i2c_wait_for_idle
         _i2c_start
         _i2c_stop
         _i2c_write
           _dec_to_bcd (ARG)
             ___awdiv
             ___awmod
           _i2c_wait_for_idle (ARG)
       _write_ds1307
         _i2c_start
         _i2c_stop
         _i2c_write
     _init_i2c
       ___lldiv
     _init_timer0
     _init_uart
       ___lldiv
     _puts
       _putchar
   _disp_dashboard
     _clcd_print
     _display_time
       _clcd_putch
       _get_time
         _read_ds1307
     _getPotVal
       ___awdiv
       ___awmod
       ___lldiv
       ___lmul
       _read_adc
   _download_log
     ___bmul
     _clcd_print
     _puts
     _read_external_eeprom
       ___bmul (ARG)
       _i2c_read (ARG)
       _i2c_rep_start (ARG)
       _i2c_start (ARG)
       _i2c_stop (ARG)
       _i2c_write (ARG)
   _log_car_event
     ___bmul
     _ext_eeprom_store_str
       _write_external_eeprom
         _i2c_start
         _i2c_stop
         _i2c_write
     _get_time
     _strncpy
   _login
     ___awdiv
     ___awmod
     _clcd_print
     _clcd_putch
     _clcd_write
     _clear_screen
     _strcmp
   _login_menu
     _clcd_print
     _clcd_putch
     _clear_screen
   _read_digital_keypad
   _set_time
     ___awdiv
     ___awmod
     ___wmul
     _clcd_print
     _clcd_putch
     _clear_screen
     _dec_to_bcd
     _i2c_start
     _i2c_stop
     _i2c_write
     _strncpy
   _strcpy
   _view_log
     ___bmul
     _clcd_print
     _clcd_putch
     _read_external_eeprom

 _isr (ROOT)

Address spaces:
Name               Size   Autos  Total    Usage
BANK3               96      0      12     12.5%
BITBANK3            96      0       0      0.0%
BANK2               96      0       0      0.0%
BITBANK2            96      0       0      0.0%
BANK1               80      0      71     88.8%
BITBANK1            80      0       0      0.0%
BANK0               80     41      79     98.8%
BITBANK0            80      0       0      0.0%
COMMON              14      9      12     85.7%
BITCOMMON           14      0       0      0.0%
DATA                 0      0     176      0.0%
STACK                0      0       0      0.0%


Microchip Technology PIC Macro Assembler V3.10 build 20250813170317 
Symbol Table                                                                                   Thu Dec 25 09:22:32 2025

                              pc 0002            _write_external_eeprom 0807                   ___bmul@product 0073  
                 clcd_print@addr 0022                               l71 17BB                               l74 0C37  
                             _GO 00FA                     ___awdiv@sign 0021                               _gr 005C  
                             fsr 0004              ___wmul@multiplicand 0074               login_menu@menu_pos 0055  
                            l111 0448                              l113 045C                              l210 0EBA  
                            l212 0FFF                              l222 0F98                              l313 02CE  
                            l420 1417                              l253 0E8B                              l350 0806  
                            l423 1423                              l191 0970                              l335 0D7B  
                            l247 0CCB                              l280 07ED                              l432 13DE  
                            l440 1430                              l417 1741                              l353 1443  
                            l194 1416                              l426 13D5                              l435 14F9  
                            l436 14FC                              l460 16DA                              l188 091E  
                            l356 1451                              l540 170D                              l373 14DD  
                            l437 14FE                              l429 13FE                              l197 1674  
                            l382 14A0                              l294 1610                              l470 13C4  
                            l286 0BC4                              l463 1543                              l703 0AE5  
                            l376 09C3                              l457 148B                              l537 083E  
                            l289 1778                              l546 14BD                              l379 13F3  
                            l491 13E8                              l563 1642                              l388 16A7  
                            l820 0A7F                              l476 15E0                              l573 1404  
                            l581 158E                              l574 1408                              l575 1409  
                            l833 0A1A                              l681 0886                              l667 1550  
                            l693 1464                              l669 1568                              _GIE 005F  
                            _RE1 0049                              _RE2 004A                              _PEN 048A  
                            _SEN 0488                              _PSA 040B                    ?_display_time 0070  
                            _loc 0069                              _log 00BF                              _sec 0059  
                            _isr 0AE6                              _res 005B                   clcd_putch@addr 0078  
                            fsr0 0004                   clcd_putch@data 0024                              indf 0000  
                   ___awmod@sign 0077               log_car_event@event 0032               log_car_event@speed 0034  
                           l1131 15B6                             l1141 08D1                             l1137 151F  
                           l1156 17FF                             l2310 141D                             l4000 15EB  
                           l2312 13CD                             l2320 1427            ??_read_digital_keypad 0072  
                           l4002 15F6                             l2330 14DF                             l2314 13D2  
                           l2322 142C                             l2402 1523                             l2410 1400  
                           l4010 0066                             l4004 1604                             l2308 1417  
                           l2340 14FD                             l2332 14E4                             l2316 13D6  
                           l2324 1430                             l2420 086D                             l2412 083F  
                           l2404 080A                             l4100 026D                             l4020 00AF  
                           l4012 0069                             l2334 14EC                             l2318 13DB  
                           l2430 0A95                             l2422 087E                             l2414 0847  
                           l2406 082A                             l4110 0298                             l4102 0278  
                           l4030 0101                             l4022 00D1                             l4014 007B  
                           l2336 14F0                             l2328 13F4                             l2352 16AB  
                           l2440 0ACD                             l2432 0AA0                             l2416 084D  
                           l2360 1447                             l2408 0830                             l2600 1594  
                           l4120 02C3                             l4112 02A3                             l4104 0280  
                           l4040 0115                             l4032 0102                             l4024 00F3  
                           l4016 008A                             l4008 0057                             l4200 0321  
                           l2338 14F5                             l2354 16D7                             l2442 0ACE  
                           l2434 0AA4                             l2426 0A80                             l2370 08FD  
                           l2418 0864                             l2610 170A                             l4122 0CCC  
                           l2602 15A1                             l4114 02AB                             l4106 0287  
                           l4050 013F                             l4042 0122                             l4034 0108  
                           l4026 00F9                             l4018 008D                             l4210 034E  
                           l4202 0322                             l2620 0898                             l2540 0800  
                           l2444 0AD7                             l2436 0AAD                             l2428 0A92  
                           l2372 0909                             l2364 08D2                             l3500 0A27  
                           l4140 0D07                             l4132 0CEA                             l4124 0CCF  
                           l2604 15A8                             l4116 02B2                             l4108 028C  
                           l4052 0144                             l4044 0127                             l4036 010A  
                           l4060 0161                             l4028 00FB                             l4300 0476  
                           l4220 037C                             l4212 0350                             l4204 0329  
                           l2630 08B7                             l2622 089C                             l2614 0887  
                           l2550 1481                             l2438 0ABF                             l2446 0ADD  
                           l2542 170E                             l2374 090D                             l2366 08ED  
                           l3510 0A36                             l3502 0A29                             l2358 1440  
                           l4150 0D2A                             l4142 0D0B                             l4126 0CD9  
                           l4118 02B7                             l4070 01B4                             l4062 0169  
                           l4054 014A                             l4046 012C                             l4038 010F  
                           l4310 04A5                             l4302 0485                             l4230 039D  
                           l4222 037E                             l4214 0363                             l4206 0342  
                           l3600 1675                             l2632 08C3                             l2616 0895  
                           l2624 08A2                             l2552 1483                             l2544 1711  
                           l2560 1615                             l2376 0919                             l2368 08F9  
                           l3520 0A4C                             l3512 0A3C                             l3504 0A2D  
                           l2608 16DE                             l4152 0D33                             l4144 0D11  
                           l4160 0D4D                             l4128 0CE3                             l2720 15C2  
                           l2712 15B8                             l4080 023D                             l4072 01C1  
                           l4064 016E                             l4056 0150                             l4048 0132  
                           l4304 048F                             l4240 03C2                             l4232 03A3  
                           l4208 0348                             l4216 0371                             l3602 167F  
                           l2626 08AA                             l2554 13BF                             l2546 173E  
                           l2562 1569                             l2378 091D                             l3522 0A5D  
                           l3514 0A3F                             l3530 0A71                             l3506 0A32  
                           l4154 0D3B                             l4146 0D1E                             l4138 0CEE  
                           l4162 0D59                             l3610 17BC                             l2722 15CD  
                           l2714 15BD                             l4090 0247                             l4082 023F  
                           l4074 01CF                             l4066 01AC                             l4058 015D  
                           l4322 04B5                             l4314 04AA                             l4306 0496  
                           l4250 03DC                             l4242 03C9                             l4234 03A9  
                           l4218 0377                             l4226 0392                             l4170 02CF  
                           l3604 168F                             l2628 08B1                             l2548 1478  
                           l2556 13DF                             l2564 156A                             l3532 0A76  
                           l3524 0A63                             l3516 0A46                             l3508 0A34  
                           l3540 09C5                             l4164 0D5F                             l4148 0D21  
                           l4156 0D41                             l2660 14B5                             l2652 14A4  
                           l3620 17EB                             l3612 17C1                             l3700 0EC4  
                           l2724 15D2                             l2732 15D4                             l4092 0249  
                           l4084 0241                             l4068 01AF                             l2740 14FF  
                           l4332 04CA                             l4324 04BE                             l4316 04AF  
                           l4308 04A0                             l4260 03F2                             l4244 03D0  
                           l4236 03AE                             l4228 0397                             l4180 02E4  
                           l4172 02D4                             l3470 14D1                             l3606 1697  
                           l2558 1611                             l2566 1578                             l3630 1779  
                           l3534 0A7B                             l3526 0A64                             l3518 0A48  
                           l3550 09D9                             l3542 09C9                             l4166 0D75  
                           l4158 0D47                             l2654 14A5                             l3622 17EF  
                           l3614 17C7                             l3710 0ED7                             l3702 0ECB  
                           l2734 15DD                             l2670 154A                             l4094 0254  
                           l4086 0243                             l4078 01D1                             l2742 1501  
                           l4334 04CF                             l4326 04C0                             l4270 0413  
                           l4262 03F7                             l4254 03E3                             l4246 03D4  
                           l4238 03BB                             l4190 030A                             l4182 02E8  
                           l4174 02D8                             l3464 14BF                             l3472 148F  
                           l3480 0990                             l2568 157E                             l3640 17A1  
                           l3632 177E                             l3608 091F                             l3528 0A6B  
                           l3560 09EF                             l3552 09DF                             l3544 09CE  
                           l2680 1453                             l2656 14AF                             l3624 17F1  
                           l3712 0EDD                             l3720 0EF3                             l3704 0ECF  
                           l3800 0C62                             l2736 15DF                             l2672 1557  
                           l4096 025C                             l4088 0245                             l4328 04C5  
                           l4272 0418                             l4264 03FC                             l4256 03E8  
                           l4280 042F                             l4248 03D6                             l4336 04D5  
                           l4192 030B                             l4184 02F6                             l4176 02DA  
                           l3466 14C9                             l3490 09B2                             l3482 0995  
                           l3474 0971                             l3642 17B0                             l3634 1783  
                           l3570 0A11                             l3562 09F9                             l3554 09E2  
                           l3546 09D0                             l3538 09C4                             l2690 1463  
                           l2682 1454                             l2658 14B3                             l3618 17E4  
                           l3650 0B54                             l3722 0EF9                             l3714 0EE3  
                           l3810 0C82                             l3802 0C65                             l2674 155E  
                           l2666 1544                             l3626 1743                             l4098 0261  
                           l4290 0461                             l4282 0440                             l4274 041D  
                           l4266 0409                             l4258 03ED                             l4194 0313  
                           l4186 02FF                             l4178 02DB                             l3468 14CB  
                           l3492 09B7                             l3484 099C                             l3476 0979  
                           l3580 13ED                             l3644 17B9                             l3636 1792  
                           l3572 0A16                             l3564 09FF                             l3556 09E9  
                           l3548 09D4                             l2684 1458                             l3660 0B8D  
                           l3652 0B59                             l2596 158F                             l3724 0EFF  
                           l3732 0F0F                             l3716 0EEC                             l3708 0ED1  
                           l3820 0CAF                             l3812 0C97                             l3804 0C6A  
                           l2676 1564                             l2668 1546                             l3900 0E81  
                           l4292 0466                             l4284 044D                             l4276 042A  
                           l4268 040E                             l4196 0318                             l4188 0305  
                           l3910 06C5                             l3486 099F                             l3478 0980  
                           l3582 13EE                             l3646 17BA                             l3638 1797  
                           l3494 0A1B                             l3566 0A06                             l3558 09EB  
                           l3590 0C0C                             l2686 145A                             l3670 0BB6  
                           l3662 0B95                             l3654 0B68                             l2598 1590  
                           l3750 0F4B                             l3742 0F26                             l3734 0F15  
                           l3726 0F05                             l3718 0EF0                             l3822 0CB6  
                           l3814 0C9E                             l4294 046D                             l4286 0454  
                           l4198 031D                             l3920 06EE                             l3912 06CC  
                           l3904 06AB                             l3488 09A6                             l3576 13E9  
                           l3496 0A1E                             l3568 0A0C                             l3592 0C21  
                           l3584 0BC5                             l3680 1667                             l2688 145C  
                           l3672 0BC0                             l3664 0B96                             l3656 0B79  
                           l3648 0B54                             l3760 0FA0                             l3752 0F58  
                           l3744 0F30                             l3736 0F24                             l3824 0CBB  
                           l3816 0CA3                             l3808 0C6D                             l3840 0DA0  
                           l3832 0D7F                             l4296 0474                             l4288 0460  
                           l3930 0716                             l3922 06F9                             l3914 06D3  
                           l3906 06B3                             l3578 13EC                             l3498 0A22  
                           l3594 0C36                             l3586 0BD0                             l3674 1643  
                           l3666 0BA1                             l3658 0B8A                             l3770 0FE4  
                           l3762 0FAD                             l3754 0F5D                             l3746 0F37  
                           l3682 0E8F                             l3826 0CBF                             l3818 0CA7  
                           l3850 0DC3                             l3842 0DA6                             l3834 0D7F  
                           l3596 140A                             l3932 0723                             l3940 0737  
                           l3924 0701                             l3908 06B8                             l3916 06D9  
                           l3588 0BF3                             l3676 164D                             l3668 0BAE  
                           l3772 0FEB                             l3764 0FC4                             l3756 0F91  
                           l3748 0F3E                             l3780 0FFE                             l3692 0EA0  
                           l3684 0E97                             l3828 0CC7                             l3860 0DD7  
                           l3852 0DC5                             l3844 0DB1                             l3836 0D87  
                           l3598 1411                             l3950 0761                             l3942 0740  
                           l3934 072E                             l3926 0707                             l3918 06E1  
                           l3678 165A                             l3774 0FF2                             l3766 0FD2  
                           l3758 0F9B                             l3694 0EA7                             l3686 0E9D  
                           l3790 0C49                             l3870 0DEF                             l3854 0DCB  
                           l3846 0DB6                             l3960 0781                             l3952 0768  
                           l3944 0748                             l3928 070E                             l3776 0FF9  
                           l3768 0FD7                             l3696 0EAD                             l3792 0C4F  
                           l3784 0C3B                             l3880 0E21                             l3872 0DFC  
                           l3848 0DBE                             l3970 07B7                             l3962 0794  
                           l3954 076E                             l3946 074D                             l3778 0FFC  
                           l3698 0EBE                             l3794 0C51                             l3786 0C41  
                           l3890 0E4F                             l3882 0E2B                             l3874 0DFF  
                           l3866 0DD9                             l3858 0DCC                             l3972 07B9  
                           l3964 0799                             l3948 075A                             l3956 0772  
                           l3788 0C46                             l3796 0C57                             l3892 0E59  
                           l3884 0E33                             l3876 0E0C                             l3868 0DE7  
                           l3974 07BB                             l3966 07A6                             l3958 077A  
                           l3798 0C5D                             l3894 0E63                             l3886 0E3D  
                           l3878 0E17                             l3976 07BD                             l3968 07B3  
                           l3984 07CD                             l3896 0E6D                             l3888 0E47  
                           _ADFM 04FF                             l3986 07D2                             l3978 07CB  
                           l3898 0E77                             l3988 07DF                             l3996 15E1  
                           ?_isr 0070                             l3998 15E7                             _ADON 00F8  
                           STR_1 069D                             STR_2 06A3                             STR_3 068E  
                           STR_4 0691                             STR_5 0694                             STR_6 0697  
                           STR_7 05B7                             STR_8 068B                             STR_9 0540  
                           _CREN 00C4                             _T0CS 040D                             u2000 14BD  
                           u2001 14BC                             u2100 15D2                             u2020 154A  
                           u2101 15D1                             u2021 1549                             u2110 15DD  
                           u2111 15DC                             u3000 0A2D                             u2120 151F  
                           u3001 0A2C                             u2121 151E                             u3010 0A3C  
                           u2050 1564                             u3011 0A3B                             u2051 1563  
                           u2035 1551                             u3100 09D4                             u2060 1458  
                           u3101 09D3                             u2061 1457                             u2045 1558  
                           u3030 0A4C                             u3110 09DF                             u2070 1463  
                           u3031 0A4B                             u3111 09DE                             u2071 1462  
                           u1440 141D                             u1600 0A92                             u3200 17EA  
                           u2080 15BD                             u1441 141C                             u1601 0A91  
                           u1505 08F0                             u3025 0A40                             u3201 17E9  
                           u2081 15BC                             u1450 1423                             u3050 0A5D  
                           u3130 09EF                             u1530 083E                             u3210 17FF  
                           u2090 15CD                             u1451 1422                             u1515 0900  
                           u3051 0A5C                             u3131 09EE                             u1531 083D  
                           u3211 17FE                             u2091 15CC                             u1460 14F5  
                           u1620 0AA4                             u1540 1408                             u3140 09F9  
                           u3300 0EF9                             u1461 14F4                             u1621 0AA3  
                           u1541 1407                             u1525 0910                             u3045 0A4D  
                           u3141 09F8                             u3125 09E3                             u3301 0EF8  
                           u3070 0A71                             u1550 084D                             u3230 0B95  
                           u3310 0EFF                             u1615 0A97                             u3071 0A70  
                           u3055 0A59                             u1551 084C                             u3231 0B94  
                           u3311 0EFE                             u4007 0471                             u1640 0ABF  
                           u3080 0A76                             u3160 0A0C                             u3240 0BAE  
                           u3320 0F15                             u3400 0C62                             u1641 0ABE  
                           u3081 0A75                             u3065 0A65                             u3161 0A0B  
                           u3145 09F5                             u1561 0856                             u3241 0BAD  
                           u3321 0F14                             u3401 0C61                             u3225 1770  
                           u4017 01C9                             u3170 0A11                             u3090 09C9  
                           u1562 085D                             u1490 1447                             u3330 0F24  
                           u3250 0E97                             u3410 0C6A                             u4107 09C0  
                           u1635 0AA6                             u3171 0A10                             u3155 0A00  
                           u3091 09C8                             u1563 0864                             u1491 1446  
                           u4027 0F3B                             u3331 0F23                             u3251 0E96  
                           u3411 0C69                             u3180 16A7                             u1660 0ADD  
                           u1900 15A1                             u3340 0F30                             u3260 0EBA  
                           u3420 0C9E                             u3500 0DFC                             u3181 16A6  
                           u4117 15FC                             u1661 0ADC                             u1645 0ABB  
                           u3245 0BAA                             u1901 15A0                             u4037 0FCC  
                           u3341 0F2F                             u3261 0EB9                             u3421 0C9D  
                           u3501 0DFB                             u3510 06B3                             u1590 087E  
                           u3190 17E3                             u1910 15A8                             u3350 0F98  
                           u3270 0ECB                             u3430 0CB6                             u4127 07C5  
                           u3511 06B2                             u1655 0ACF                             u1591 087D  
                           u1575 0866                             u3191 17E2                             u1911 15A7  
                           u4047 0FF6                             u3351 0F97                             u3271 0ECA  
                           u3431 0CB5                             u1920 0895                             u3520 06E1  
                           u3600 15E7                             u3280 0ED7                             u3360 0C41  
                           u3440 0D87                             u4137 1413                             u1921 0894  
                           u3521 06E0                             u3601 15E6                             u4057 0975  
                           u1585 086E                             u3281 0ED6                             u3265 0EB6  
                           u3361 0C40                             u3505 0DF8                             u3441 0D86  
                           u1930 08AA                             u3530 06EE                             u3290 0EDD  
                           u3370 0C46                             u3610 00F9                             u3450 0DA6  
          ?_read_external_eeprom 0070                             u4147 14CE                             u1931 08A9  
                           u3531 06ED                             u4067 0984                             u3291 0EDC  
                           u3371 0C45                             u3611 00F8                             u3451 0DA5  
                           u1940 08B1                             u3540 0716                             u1860 171F  
                           u3380 0C4F                             u3700 0169                             u3620 0101  
                           u3460 0DB1                             u4157 14D8                             u1941 08B0  
                           u3541 0715                             u4077 0992                             u3381 0C4E  
                           u3701 0168                             u3621 0100                             u3461 0DB0  
                           u1950 08B7                             u3550 0723                             u1870 1623  
                           u3390 0C5D                             u3710 016E                             u3630 0108  
                           u3470 0DBE                             u1951 08B6                             u3551 0722  
                           u3535 06EA                             u4087 09A8                             u3391 0C5C  
                           u3711 016D                             u3631 0107                             u3471 0DBD  
                           u1960 08C3                             u3560 0740                             u1880 158E  
                           u3800 0D1E                             u3720 025C                             u3640 010F  
                           u3480 0DC3                             u1961 08C2                             u3561 073F  
                           u4097 09B4                             u1865 171A                             u1881 158D  
                           u3801 0D1D                             u3721 025B                             u3641 010E  
                           u3481 0DC2                             u3465 0DAD                             u3570 0748  
                           u3810 0D47                             u3730 0261                             u3650 0122  
                           u3490 0DCB                             u3571 0747                             u3555 071F  
                           u1875 161E                             u3811 0D46                             u3731 0260  
                           u3651 0121                             u3491 0DCA                             _PEIE 005E  
                           u3580 077A                             u3820 0D5F                             u3740 0287  
                           u3660 012C                             u3900 0377                             u3581 0779  
                           u3821 0D5E                             u3805 0D1A                             u3741 0286  
                           u3661 012B                             u3901 0376                             u3590 0794  
                           u3750 028C                             u3670 013F                             u3910 037C  
                           u3830 02F6                             u3591 0793                             u3751 028B  
                           u3671 013E                             u3655 011E                             u3911 037B  
                           u3831 02F5                             u3760 02B2                             u3680 014A  
                           u3920 0397                             u3840 0305                             u3761 02B1  
                           u3681 0149                             u3921 0396                             u3841 0304  
                           u2970 14C6                             u3770 02B7                             u3690 015D  
                           u3930 039D                             u3850 030A                             u2971 14C2  
                           u3771 02B6                             u3691 015C                             u3675 013B  
                           u3931 039C                             u3851 0309                             u3780 0CE3  
                           u3940 03A3                             u3860 0313                             _RCEN 048B  
                           _RCIF 0065                             u3781 0CE2                             u3941 03A2  
                           u3861 0312                             u2990 0A22                             u3790 0CE9  
                           u3950 03A9                             u3870 0329                             u2991 0A21  
                           u3791 0CE8                             u3695 0159                             u3951 03A8  
                           u3871 0328                             u2984 14C9                             u3960 03DC  
                           u3880 0348                             u3961 03DB                             u3881 0347  
                           u3970 03E2                             u3890 034E                             u3971 03E1  
                           u3891 034D                             u3987 03CD                             u3997 0458  
                           _TMR0 0001                             _SPEN 00C7                             _TXIF 0064  
                           _R_nW 04A2                             _gear 0190                             _main 02CF  
                           _hold 0079                             _menu 00D8                             _once 00B7  
                           _pass 00E2                             _next 0068                             _time 005D  
                           btemp 007E                             _puts 1569            __end_of_change_passwd 07EE  
                           start 000C                ___bmul@multiplier 0074                   clcd_write@byte 0075  
                 clcd_write@mode 0072                    _i2c_rep_start 13F4                            ??_isr 0070  
                   ?_init_ds1307 0070                            ?_main 0070                     ?_read_ds1307 0070  
                          _ACKEN 048C                            _ACKDT 048D                   ??_display_time 0079  
                __end_of___awdiv 0A80                            STR_10 06A0                            STR_11 069A  
                          STR_20 0551                            STR_12 0679                            STR_21 05D8  
                          STR_13 0666                            STR_30 0634                            STR_22 053F  
                          STR_14 0616                            STR_31 0682                            STR_23 0573  
                          STR_15 0642                            STR_40 0625                            STR_32 0607  
                          STR_24 05E8                            STR_16 0670                            STR_17 0574  
                          STR_25 0573                            STR_33 052B                            STR_41 0500  
                          STR_34 064F                            STR_18 05A6                            STR_26 0595  
                          STR_42 0516                            STR_27 05C8                            STR_19 0584  
                          STR_35 0562                            STR_36 0688                            STR_28 05F8  
                __end_of___awmod 0A1B                            STR_37 0688                            STR_29 065B  
                          STR_38 0688                            STR_39 06A6                            ?_puts 0073  
                __end_of___lldiv 0AE6                      i2c_read@ack 0072                  ___awdiv@divisor 0072  
                          i1l521 0B4D                  ___awdiv@counter 0020                            _RCREG 001A  
                          _SPBRG 0099                            _PORTB 0006                            _PORTD 0008  
                          _SSPM3 00A3                            _TRISB 0086                            _TRISD 0088  
                          _SSPEN 00A5                            _TXREG 0019                            _Donce 0050  
                   ?_init_timer0 0070              ___lmul@multiplicand 0024                     main@menu_pos 0045  
                          _nDONE 00FA        write_external_eeprom@data 002C             __end_of_clear_screen 1417  
      write_external_eeprom@wait 002D                            _blink 0058                            _event 006C  
                          _next2 00B1                            _login 0E8C                            _reset 00BD  
                          btemp0 007E                            btemp1 007F                            main@j 0042  
                          pclath 000A                            puts@s 0073                  __end_of_putchar 140A  
                          status 0003                            wtemp0 007E                  __end_of_strncmp 08D2  
                __end_of_strncpy 1800                 init_ds1307@dummy 002E                  __initialization 000F  
                 ?_i2c_rep_start 0070           ?_write_external_eeprom 002C                     __end_of_main 04F4  
                   __end_of_puts 158F                 __end_of_i2c_read 14FF                 __end_of_i2c_stop 13DF  
                  ?_download_log 0070                           ??_main 0040                           ??_puts 0075  
         ??_read_external_eeprom 0079                           _ADRESH 001E                           ?_login 0025  
                         _ADRESL 009E                 ___awdiv@dividend 0074                     i2c_read@data 0073  
                         i1l3440 0B04                           i1l3450 0B34                           i1l3442 0B06  
                         i1l3434 0AE6                           i1l3460 0B4A                           i1l3452 0B36  
                         i1l3444 0B17                           i1l3436 0AEA                           i1l3454 0B3D  
                         i1l3462 0B4C                           i1l3446 0B21                           i1l3438 0AFE  
                         i1l3456 0B40                           i1l3448 0B25                           i1l3458 0B45  
                         u290_20 0B17                           u290_21 0B16                     _write_ds1307 1520  
                         u291_20 0B1F                           u291_21 0B1D                           u292_20 0B20  
                         u293_20 0B34                           u293_21 0B33                           u294_20 0B3D  
                         u294_21 0B3C                           u295_20 0B45                           u295_21 0B44  
                         u296_20 0B4A                           u288_20 0AEA                           u296_21 0B49  
                         u288_21 0AE9                           u289_20 0AFE                           u289_21 0AFD  
                         _TMR0IE 005D                           _TMR0IF 005A                           _SSPADD 0093  
              change_passwd@once 00B3                           _TRISE1 0449                           _TRISE2 044A  
                         _SSPBUF 0013                    login_menu@key 002B                    login_menu@pos 0054  
    __end_of_init_digital_keypad 13C5                    dec_to_bcd@val 0078                 __end_of_get_time 091F  
                         ___bmul 1452          _init_display_controller 0971                           ___lmul 083F  
                         ___wmul 1544                        ??___awdiv 0076                        ??___awmod 0076  
                      ??___lldiv 0072                           _config 1779                 __end_of_init_i2c 1742  
               ??_disp_dashboard 0079                 __end_of_init_adc 0807                 __end_of_read_adc 1452  
                 ??_download_log 0079                 ___awdiv@quotient 0022                  ___awmod@divisor 0072  
                         _potVal 0064                  ___awmod@counter 0076                           main@k2 0044  
                         _strcmp 158F                           _strcpy 14FF                     __pdataCOMMON 007B  
                         login@i 0057                           login@k 002A                 __end_of_set_time 02CF  
                         ltemp0a 0080                           saved_w 007E                 __end_of_view_log 0E8C  
                         ttemp0a 007F                        ??_putchar 0072                           wtemp0a 007F  
                      ??_strncmp 0076                        ??_strncpy 0077          __end_of__initialization 0050  
           __end_of_display_time 0971                  ??_i2c_rep_start 0072              ___bmul@multiplicand 0072  
                 __pcstackCOMMON 0070                     __pidataBANK0 13BA                     __pidataBANK1 1431  
                   __pidataBANK3 04F4                    __end_of_login 1000                  login@reset_flag 0025  
              __end_of_i2c_start 13D6                __end_of_i2c_write 1431                _i2c_wait_for_idle 1417  
        ext_eeprom_store_str@str 0030                          ??_login 0026                       _dec_to_bcd 1742  
             ?_i2c_wait_for_idle 0070                       __pbssBANK0 0049                       __pbssBANK1 00A0  
                      ?_i2c_read 0070                        ?_i2c_stop 0070        ??_init_display_controller 0076  
                     _clcd_print 1675              ??_i2c_wait_for_idle 0072                       _clcd_putch 148C  
                     _clcd_write 14BE     write_external_eeprom@address 002F                       _clear_logs 15E1  
                     __pmaintext 02CF                  read_ds1307@addr 002C                    _log_car_event 0B54  
                read_ds1307@data 002D                     _clear_screen 140A                          ?___bmul 0072  
                        ?___lmul 0020                          ?___wmul 0072                       __pintentry 0004  
                        ?_config 0070                          _ACKSTAT 048E                   ___lmul@product 0073  
                        ?_strcmp 0072                          ?_strcpy 0072      __end_of_read_digital_keypad 15E1  
      __end_of_i2c_wait_for_idle 1424                     init_i2c@baud 0028                          _SSPCON2 0091  
             change_passwd@sonce 00B5               change_passwd@upass 00CA                        ?_get_time 0070  
    ext_eeprom_store_str@address 0031                       __stringtab 07EE                       ??_i2c_read 0072  
                     ??_i2c_stop 0072                        ?_init_i2c 0028             __end_of_download_log 0D7C  
                      ?_init_adc 0070                        ?_read_adc 0072          ??_write_external_eeprom 0079  
              __end_of_getPotVal 0C38                   ?_log_car_event 0032                        ?_set_time 0070  
                        ___awdiv 0A1B                          ___awmod 09C4                        ?_view_log 0070  
                        ___lldiv 0A80                 main@control_flag 0047                          __ptext1 0D7C  
                        __ptext2 14FF                          __ptext3 0054                          __ptext4 1742  
                        __ptext5 1544                          __ptext6 15B7                          __ptext7 0C38  
                        __ptext8 0E8C                          __ptext9 158F  __end_of_init_display_controller 09C4  
              __end_of_init_clcd 13F4                __end_of_init_uart 1643                 ___awmod@dividend 0074  
                 main@reset_flag 0046                       _login_menu 0C38                          _putchar 13FF  
                        main@key 0048                          clrloop0 13C6                      ?_dec_to_bcd 0070  
                     ??_get_time 002E                          _strncmp 0887                          _strncpy 17BC  
           end_of_initialization 0050                      set_time@key 0030                      set_time@min 003C  
                    set_time@sec 003E                       ??_init_i2c 002C                       ??_init_adc 0072  
                     ??_read_adc 0074                      ?_clcd_print 0020                      ?_clcd_putch 0078  
                ___lldiv@divisor 0020                      ?_clcd_write 0072                  ___lldiv@counter 0077  
                    ?_clear_logs 0070                       ??_set_time 002C                       ??_view_log 0079  
                   __pstringtext 0500                          strcmp@l 0072                          strcmp@r 0073  
                        strcpy@d 0077                     _display_time 091F                    i2c_write@data 002B  
   __end_of_ext_eeprom_store_str 14BE                    clcd_print@str 0020                 log_car_event@add 0035  
       read_external_eeprom@data 002D                  ??_log_car_event 0079                     login@attempt 0056  
                  _change_passwd 06A8                   __end_of___bmul 1465                   __end_of___lmul 0887  
                 __end_of___wmul 1569                    __pidataCOMMON 0003                   __end_of_config 17BC  
                    view_log@add 002E                      view_log@key 002F                   __end_of_strcmp 15B7  
                 __end_of_strcpy 1520              start_initialization 000F                      ?_login_menu 0070  
                      _i2c_start 13CD                      __end_of_isr 0B54                        _i2c_write 1424  
                     isr@blinker 00AB                   ?_change_passwd 0070                       isr@counter 00AD  
               change_passwd@key 0028                 change_passwd@pos 004C        getPotVal@new_mapped_value 002E  
                 set_time@edited 0052                      putchar@data 0072            __end_of_i2c_rep_start 13FF  
                       ??___bmul 0073                         ??___lmul 0072                         ??___wmul 0076  
                     init_fetch0 1465                    ??_init_ds1307 0079                         ??_config 0079  
                    __pdataBANK0 006A                      __pdataBANK1 00D8                      __pdataBANK3 0190  
                  ??_read_ds1307 0079                     _download_log 0CCC                         ??_strcmp 0074  
                       ??_strcpy 0075                    ??_init_timer0 0072                      __pbssCOMMON 0079  
                      ___latbits 0002                       login@uPass 00D3                    __pcstackBANK0 0020  
                     ?_i2c_start 0070                       ?_i2c_write 0070                   change_passwd@i 004E  
            disp_dashboard@event 002F    __end_of_write_external_eeprom 083F             _ext_eeprom_store_str 14A1  
                       ?___awdiv 0072                         ?___awmod 0072                         ?___lldiv 0020  
                      _getPotVal 0BC5                        _clock_reg 0049                        __pstrings 07EE  
            __end_of_init_ds1307 148C              read_adc@adc_reg_val 0074              __end_of_read_ds1307 16DB  
                       ?_putchar 0070                        _init_clcd 13E9                     ??_dec_to_bcd 0024  
                      _init_uart 1611                         ?_strncmp 0072                         ?_strncpy 0072  
                  ?_write_ds1307 002C              __end_of_init_timer0 13E9         ?_init_display_controller 0070  
                ??_change_passwd 0025                interrupt_function 0004                   ___wmul@product 0076  
    read_external_eeprom@address 002C                        clear_ram0 13C5                       set_time@hh 0031  
                     set_time@mm 0034                       set_time@ss 0037                     ??_clcd_print 0076  
                   ??_clcd_putch 0079                     ??_clcd_write 0073                     ??_clear_logs 0076  
          ?_ext_eeprom_store_str 0030                       ?_getPotVal 0070                        _pot_value 00BB  
                  download_log@i 003A               __end_of_dec_to_bcd 1779                      __stringbase 0800  
              ___wmul@multiplier 0072                      ??_i2c_start 0072               __end_of_clcd_print 16A8  
                    ??_i2c_write 0079               __end_of_clcd_putch 14A1               __end_of_clcd_write 14DE  
                     ?_init_clcd 0070                       ?_init_uart 0028               __end_of_clear_logs 1611  
              ___lmul@multiplier 0020                   ??_write_ds1307 0079              _init_digital_keypad 13BF  
                       _i2c_read 14DE                         _i2c_stop 13D6                    set_time@field 0053  
   __end_of_read_external_eeprom 170E             ?_init_digital_keypad 0070                      _init_ds1307 1478  
                    _event_count 006A               __end_of__stringtab 0800                      _read_ds1307 16A8  
                   ??_login_menu 0025                      _init_timer0 13DF                   _disp_dashboard 1643  
                       __ptext10 0B54                         __ptext11 17BC                         __ptext20 083F  
                       __ptext12 14A1                         __ptext21 09C4                         __ptext13 0807  
                       __ptext30 170E                         __ptext22 0A1B                         __ptext14 0CCC  
                       __ptext31 0A80                         __ptext23 091F                         __ptext15 16DB  
                       __ptext40 1417                         __ptext32 1478                         __ptext24 08D2  
                       __ptext16 1452                         __ptext41 13BF                         __ptext33 1520  
                       __ptext25 1779                         __ptext17 1643                         __ptext50 1675  
                       __ptext42 13E9                         __ptext34 16A8                         __ptext26 1569  
                       __ptext18 0BC5                         __ptext51 14BE                         __ptext43 0971  
                       __ptext35 1424                         __ptext27 13FF                         __ptext19 1440  
                       __ptext52 0AE6                         __ptext44 0800                         __ptext36 13F4  
                       __ptext28 1611                         __ptext45 15E1                         __ptext37 13D6  
                       __ptext29 13DF                         __ptext46 06A8                         __ptext38 13CD  
                       __ptext47 0887                         __ptext39 14DE                         __ptext48 140A  
                       __ptext49 148C                         _get_time 08D2                       strcpy@dest 0072  
                       _init_i2c 170E                         _init_adc 0800                         _read_adc 1440  
        read_digital_keypad@mode 0073          read_digital_keypad@once 007B           ??_ext_eeprom_store_str 0079  
          __end_of_log_car_event 0BC5                    ?_clear_screen 0070                         _set_time 0054  
                view_log@logData 00A0               __end_of_login_menu 0CCC                         _view_log 0D7C  
                    ??_getPotVal 0028            ??_init_digital_keypad 0072                         main@hold 00B9  
                  getPotVal@temp 002A                        view_log@i 0030           __end_of_disp_dashboard 1675  
                   set_time@hour 003A                         init_ram0 1469                      ??_init_clcd 0078  
                    ??_init_uart 002C                   _login_menu$282 0027                   _login_menu$283 0029  
                       login@key 0029                         intlevel1 0000                    init_uart@baud 0028  
               ___lldiv@dividend 0024                        strcpy@src 0073                        stringcode 07F8  
                 ??_clear_screen 0076                        strncpy@cp 0020             __end_of_write_ds1307 1544  
            _read_digital_keypad 15B7                  ?_disp_dashboard 002F                 ___lldiv@quotient 0073  
                       strncmp@l 0072                         strncmp@n 0074                         strncmp@r 0073  
                       stringtab 07EE                         strncpy@d 0072                         strncpy@n 0075  
                       strncpy@s 0073              download_log@logData 002E                      _return_time 005A  
           ?_read_digital_keypad 0070                 write_ds1307@addr 002D                 write_ds1307@data 002C  
           _read_external_eeprom 16DB                download_log@tempF 00AF                  download_log@add 0039  
